Archive member included because of file (symbol)

c:/nds/libnds/lib\libnds9.a(console.o)
                              main.o (consoleInitDefault)
c:/nds/libnds/lib\libnds9.a(initSystem.o)
                              c:/nds/devkitarm/bin/../lib/gcc/arm-eabi/4.3.0/../../../../arm-eabi/lib/thumb/ds_arm9_crt0.o (initSystem)
c:/nds/libnds/lib\libnds9.a(keys.o)
                              main.o (keysHeld)
c:/nds/libnds/lib\libnds9.a(touch.o)
                              main.o (touchReadXY)
c:/nds/libnds/lib\libnds9.a(video.o)
                              main.o (vramSetBankC)
c:/nds/libnds/lib\libnds9.a(interrupts.o)
                              uart.o (irqSet)
c:/nds/libnds/lib\libnds9.a(biosCalls.o)
                              reboot.o (swiSoftReset)
c:/nds/libnds/lib\libnds9.a(interruptDispatcher.o)
                              c:/nds/libnds/lib\libnds9.a(interrupts.o) (IntrMain)
c:/nds/libnds/lib\libnds9.a(default_font.o)
                              c:/nds/libnds/lib\libnds9.a(console.o) (default_font_bin)
c:/nds/devkitarm/bin/../lib/gcc/arm-eabi/4.3.0/../../../../arm-eabi/lib/thumb\libg.a(lib_a-impure.o)
                              c:/nds/libnds/lib\libnds9.a(console.o) (_impure_ptr)
c:/nds/devkitarm/bin/../lib/gcc/arm-eabi/4.3.0/../../../../arm-eabi/lib/thumb\libg.a(lib_a-init.o)
                              c:/nds/devkitarm/bin/../lib/gcc/arm-eabi/4.3.0/../../../../arm-eabi/lib/thumb/ds_arm9_crt0.o (__libc_init_array)
c:/nds/devkitarm/bin/../lib/gcc/arm-eabi/4.3.0/../../../../arm-eabi/lib/thumb\libg.a(lib_a-iprintf.o)
                              main.o (iprintf)
c:/nds/devkitarm/bin/../lib/gcc/arm-eabi/4.3.0/../../../../arm-eabi/lib/thumb\libg.a(lib_a-memcpy.o)
                              uart.o (memcpy)
c:/nds/devkitarm/bin/../lib/gcc/arm-eabi/4.3.0/../../../../arm-eabi/lib/thumb\libg.a(lib_a-memmove.o)
                              uart.o (memmove)
c:/nds/devkitarm/bin/../lib/gcc/arm-eabi/4.3.0/../../../../arm-eabi/lib/thumb\libg.a(lib_a-setvbuf.o)
                              c:/nds/libnds/lib\libnds9.a(console.o) (setvbuf)
c:/nds/devkitarm/bin/../lib/gcc/arm-eabi/4.3.0/../../../../arm-eabi/lib/thumb\libg.a(lib_a-siscanf.o)
                              c:/nds/libnds/lib\libnds9.a(console.o) (siscanf)
c:/nds/devkitarm/bin/../lib/gcc/arm-eabi/4.3.0/../../../../arm-eabi/lib/thumb\libg.a(lib_a-strlen.o)
                              uart.o (strlen)
c:/nds/devkitarm/bin/../lib/gcc/arm-eabi/4.3.0/../../../../arm-eabi/lib/thumb\libg.a(lib_a-sysstat.o)
                              reboot.o (stat)
c:/nds/devkitarm/bin/../lib/gcc/arm-eabi/4.3.0/../../../../arm-eabi/lib/thumb\libg.a(lib_a-vfiprintf.o)
                              c:/nds/devkitarm/bin/../lib/gcc/arm-eabi/4.3.0/../../../../arm-eabi/lib/thumb\libg.a(lib_a-iprintf.o) (_vfiprintf_r)
c:/nds/devkitarm/bin/../lib/gcc/arm-eabi/4.3.0/../../../../arm-eabi/lib/thumb\libg.a(lib_a-vfiscanf.o)
                              c:/nds/devkitarm/bin/../lib/gcc/arm-eabi/4.3.0/../../../../arm-eabi/lib/thumb\libg.a(lib_a-siscanf.o) (__svfiscanf_r)
c:/nds/devkitarm/bin/../lib/gcc/arm-eabi/4.3.0/../../../../arm-eabi/lib/thumb\libg.a(lib_a-wcrtomb.o)
                              c:/nds/devkitarm/bin/../lib/gcc/arm-eabi/4.3.0/../../../../arm-eabi/lib/thumb\libg.a(lib_a-vfiprintf.o) (_wcrtomb_r)
c:/nds/devkitarm/bin/../lib/gcc/arm-eabi/4.3.0/../../../../arm-eabi/lib/thumb\libg.a(lib_a-wcsrtombs.o)
                              c:/nds/devkitarm/bin/../lib/gcc/arm-eabi/4.3.0/../../../../arm-eabi/lib/thumb\libg.a(lib_a-vfiprintf.o) (_wcsrtombs_r)
c:/nds/devkitarm/bin/../lib/gcc/arm-eabi/4.3.0/../../../../arm-eabi/lib/thumb\libg.a(lib_a-wctomb_r.o)
                              c:/nds/devkitarm/bin/../lib/gcc/arm-eabi/4.3.0/../../../../arm-eabi/lib/thumb\libg.a(lib_a-wcrtomb.o) (_wctomb_r)
c:/nds/devkitarm/bin/../lib/gcc/arm-eabi/4.3.0/../../../../arm-eabi/lib/thumb\libg.a(lib_a-wsetup.o)
                              c:/nds/devkitarm/bin/../lib/gcc/arm-eabi/4.3.0/../../../../arm-eabi/lib/thumb\libg.a(lib_a-vfiprintf.o) (__swsetup)
c:/nds/devkitarm/bin/../lib/gcc/arm-eabi/4.3.0/../../../../arm-eabi/lib/thumb\libg.a(lib_a-ctype_.o)
                              c:/nds/devkitarm/bin/../lib/gcc/arm-eabi/4.3.0/../../../../arm-eabi/lib/thumb\libg.a(lib_a-vfiscanf.o) (__ctype_ptr)
c:/nds/devkitarm/bin/../lib/gcc/arm-eabi/4.3.0/../../../../arm-eabi/lib/thumb\libg.a(lib_a-fflush.o)
                              c:/nds/devkitarm/bin/../lib/gcc/arm-eabi/4.3.0/../../../../arm-eabi/lib/thumb\libg.a(lib_a-setvbuf.o) (fflush)
c:/nds/devkitarm/bin/../lib/gcc/arm-eabi/4.3.0/../../../../arm-eabi/lib/thumb\libg.a(lib_a-findfp.o)
                              c:/nds/devkitarm/bin/../lib/gcc/arm-eabi/4.3.0/../../../../arm-eabi/lib/thumb\libg.a(lib_a-setvbuf.o) (__sinit)
c:/nds/devkitarm/bin/../lib/gcc/arm-eabi/4.3.0/../../../../arm-eabi/lib/thumb\libg.a(lib_a-fread.o)
                              c:/nds/devkitarm/bin/../lib/gcc/arm-eabi/4.3.0/../../../../arm-eabi/lib/thumb\libg.a(lib_a-vfiscanf.o) (fread)
c:/nds/devkitarm/bin/../lib/gcc/arm-eabi/4.3.0/../../../../arm-eabi/lib/thumb\libg.a(lib_a-freer.o)
                              c:/nds/devkitarm/bin/../lib/gcc/arm-eabi/4.3.0/../../../../arm-eabi/lib/thumb\libg.a(lib_a-setvbuf.o) (_free_r)
c:/nds/devkitarm/bin/../lib/gcc/arm-eabi/4.3.0/../../../../arm-eabi/lib/thumb\libg.a(lib_a-fvwrite.o)
                              c:/nds/devkitarm/bin/../lib/gcc/arm-eabi/4.3.0/../../../../arm-eabi/lib/thumb\libg.a(lib_a-vfiprintf.o) (__sfvwrite_r)
c:/nds/devkitarm/bin/../lib/gcc/arm-eabi/4.3.0/../../../../arm-eabi/lib/thumb\libg.a(lib_a-fwalk.o)
                              c:/nds/devkitarm/bin/../lib/gcc/arm-eabi/4.3.0/../../../../arm-eabi/lib/thumb\libg.a(lib_a-fflush.o) (_fwalk)
c:/nds/devkitarm/bin/../lib/gcc/arm-eabi/4.3.0/../../../../arm-eabi/lib/thumb\libg.a(lib_a-iswspace.o)
                              c:/nds/devkitarm/bin/../lib/gcc/arm-eabi/4.3.0/../../../../arm-eabi/lib/thumb\libg.a(lib_a-vfiscanf.o) (iswspace)
c:/nds/devkitarm/bin/../lib/gcc/arm-eabi/4.3.0/../../../../arm-eabi/lib/thumb\libg.a(lib_a-jp2uc.o)
                              c:/nds/devkitarm/bin/../lib/gcc/arm-eabi/4.3.0/../../../../arm-eabi/lib/thumb\libg.a(lib_a-iswspace.o) (__jp2uc)
c:/nds/devkitarm/bin/../lib/gcc/arm-eabi/4.3.0/../../../../arm-eabi/lib/thumb\libg.a(lib_a-locale.o)
                              c:/nds/devkitarm/bin/../lib/gcc/arm-eabi/4.3.0/../../../../arm-eabi/lib/thumb\libg.a(lib_a-wctomb_r.o) (__lc_ctype)
c:/nds/devkitarm/bin/../lib/gcc/arm-eabi/4.3.0/../../../../arm-eabi/lib/thumb\libg.a(lib_a-makebuf.o)
                              c:/nds/devkitarm/bin/../lib/gcc/arm-eabi/4.3.0/../../../../arm-eabi/lib/thumb\libg.a(lib_a-wsetup.o) (__smakebuf)
c:/nds/devkitarm/bin/../lib/gcc/arm-eabi/4.3.0/../../../../arm-eabi/lib/thumb\libg.a(lib_a-malloc.o)
                              c:/nds/devkitarm/bin/../lib/gcc/arm-eabi/4.3.0/../../../../arm-eabi/lib/thumb\libg.a(lib_a-setvbuf.o) (malloc)
c:/nds/devkitarm/bin/../lib/gcc/arm-eabi/4.3.0/../../../../arm-eabi/lib/thumb\libg.a(lib_a-mallocr.o)
                              c:/nds/devkitarm/bin/../lib/gcc/arm-eabi/4.3.0/../../../../arm-eabi/lib/thumb\libg.a(lib_a-vfiprintf.o) (_malloc_r)
c:/nds/devkitarm/bin/../lib/gcc/arm-eabi/4.3.0/../../../../arm-eabi/lib/thumb\libg.a(lib_a-mbrtowc.o)
                              c:/nds/devkitarm/bin/../lib/gcc/arm-eabi/4.3.0/../../../../arm-eabi/lib/thumb\libg.a(lib_a-vfiscanf.o) (_mbrtowc_r)
c:/nds/devkitarm/bin/../lib/gcc/arm-eabi/4.3.0/../../../../arm-eabi/lib/thumb\libg.a(lib_a-mbtowc_r.o)
                              c:/nds/devkitarm/bin/../lib/gcc/arm-eabi/4.3.0/../../../../arm-eabi/lib/thumb\libg.a(lib_a-vfiprintf.o) (_mbtowc_r)
c:/nds/devkitarm/bin/../lib/gcc/arm-eabi/4.3.0/../../../../arm-eabi/lib/thumb\libg.a(lib_a-memchr.o)
                              c:/nds/devkitarm/bin/../lib/gcc/arm-eabi/4.3.0/../../../../arm-eabi/lib/thumb\libg.a(lib_a-vfiprintf.o) (memchr)
c:/nds/devkitarm/bin/../lib/gcc/arm-eabi/4.3.0/../../../../arm-eabi/lib/thumb\libg.a(lib_a-memset.o)
                              c:/nds/devkitarm/bin/../lib/gcc/arm-eabi/4.3.0/../../../../arm-eabi/lib/thumb\libg.a(lib_a-vfiprintf.o) (memset)
c:/nds/devkitarm/bin/../lib/gcc/arm-eabi/4.3.0/../../../../arm-eabi/lib/thumb\libg.a(lib_a-mlock.o)
                              c:/nds/devkitarm/bin/../lib/gcc/arm-eabi/4.3.0/../../../../arm-eabi/lib/thumb\libg.a(lib_a-freer.o) (__malloc_lock)
c:/nds/devkitarm/bin/../lib/gcc/arm-eabi/4.3.0/../../../../arm-eabi/lib/thumb\libg.a(lib_a-reallocr.o)
                              c:/nds/devkitarm/bin/../lib/gcc/arm-eabi/4.3.0/../../../../arm-eabi/lib/thumb\libg.a(lib_a-fvwrite.o) (_realloc_r)
c:/nds/devkitarm/bin/../lib/gcc/arm-eabi/4.3.0/../../../../arm-eabi/lib/thumb\libg.a(lib_a-refill.o)
                              c:/nds/devkitarm/bin/../lib/gcc/arm-eabi/4.3.0/../../../../arm-eabi/lib/thumb\libg.a(lib_a-vfiscanf.o) (__srefill_r)
c:/nds/devkitarm/bin/../lib/gcc/arm-eabi/4.3.0/../../../../arm-eabi/lib/thumb\libg.a(lib_a-sccl.o)
                              c:/nds/devkitarm/bin/../lib/gcc/arm-eabi/4.3.0/../../../../arm-eabi/lib/thumb\libg.a(lib_a-vfiscanf.o) (__sccl)
c:/nds/devkitarm/bin/../lib/gcc/arm-eabi/4.3.0/../../../../arm-eabi/lib/thumb\libg.a(lib_a-stdio.o)
                              c:/nds/devkitarm/bin/../lib/gcc/arm-eabi/4.3.0/../../../../arm-eabi/lib/thumb\libg.a(lib_a-findfp.o) (__sclose)
c:/nds/devkitarm/bin/../lib/gcc/arm-eabi/4.3.0/../../../../arm-eabi/lib/thumb\libg.a(lib_a-strcmp.o)
                              c:/nds/devkitarm/bin/../lib/gcc/arm-eabi/4.3.0/../../../../arm-eabi/lib/thumb\libg.a(lib_a-wctomb_r.o) (strcmp)
c:/nds/devkitarm/bin/../lib/gcc/arm-eabi/4.3.0/../../../../arm-eabi/lib/thumb\libg.a(lib_a-strcpy.o)
                              c:/nds/devkitarm/bin/../lib/gcc/arm-eabi/4.3.0/../../../../arm-eabi/lib/thumb\libg.a(lib_a-locale.o) (strcpy)
c:/nds/devkitarm/bin/../lib/gcc/arm-eabi/4.3.0/../../../../arm-eabi/lib/thumb\libg.a(lib_a-strtol.o)
                              c:/nds/devkitarm/bin/../lib/gcc/arm-eabi/4.3.0/../../../../arm-eabi/lib/thumb\libg.a(lib_a-vfiscanf.o) (_strtol_r)
c:/nds/devkitarm/bin/../lib/gcc/arm-eabi/4.3.0/../../../../arm-eabi/lib/thumb\libg.a(lib_a-strtoul.o)
                              c:/nds/devkitarm/bin/../lib/gcc/arm-eabi/4.3.0/../../../../arm-eabi/lib/thumb\libg.a(lib_a-vfiscanf.o) (_strtoul_r)
c:/nds/devkitarm/bin/../lib/gcc/arm-eabi/4.3.0/../../../../arm-eabi/lib/thumb\libg.a(lib_a-ungetc.o)
                              c:/nds/devkitarm/bin/../lib/gcc/arm-eabi/4.3.0/../../../../arm-eabi/lib/thumb\libg.a(lib_a-vfiscanf.o) (ungetc)
c:/nds/devkitarm/bin/../lib/gcc/arm-eabi/4.3.0/../../../../arm-eabi/lib/thumb\libg.a(lib_a-fclose.o)
                              c:/nds/devkitarm/bin/../lib/gcc/arm-eabi/4.3.0/../../../../arm-eabi/lib/thumb\libg.a(lib_a-findfp.o) (fclose)
c:/nds/devkitarm/bin/../lib/gcc/arm-eabi/4.3.0/../../../../arm-eabi/lib/thumb\libsysbase.a(iosupport.o)
                              c:/nds/libnds/lib\libnds9.a(console.o) (devoptab_list)
c:/nds/devkitarm/bin/../lib/gcc/arm-eabi/4.3.0/../../../../arm-eabi/lib/thumb\libsysbase.a(close.o)
                              c:/nds/devkitarm/bin/../lib/gcc/arm-eabi/4.3.0/../../../../arm-eabi/lib/thumb\libg.a(lib_a-stdio.o) (_close_r)
c:/nds/devkitarm/bin/../lib/gcc/arm-eabi/4.3.0/../../../../arm-eabi/lib/thumb\libsysbase.a(fstat.o)
                              c:/nds/devkitarm/bin/../lib/gcc/arm-eabi/4.3.0/../../../../arm-eabi/lib/thumb\libg.a(lib_a-makebuf.o) (_fstat_r)
c:/nds/devkitarm/bin/../lib/gcc/arm-eabi/4.3.0/../../../../arm-eabi/lib/thumb\libsysbase.a(isatty.o)
                              c:/nds/devkitarm/bin/../lib/gcc/arm-eabi/4.3.0/../../../../arm-eabi/lib/thumb\libg.a(lib_a-makebuf.o) (isatty)
c:/nds/devkitarm/bin/../lib/gcc/arm-eabi/4.3.0/../../../../arm-eabi/lib/thumb\libsysbase.a(lseek.o)
                              c:/nds/devkitarm/bin/../lib/gcc/arm-eabi/4.3.0/../../../../arm-eabi/lib/thumb\libg.a(lib_a-stdio.o) (_lseek_r)
c:/nds/devkitarm/bin/../lib/gcc/arm-eabi/4.3.0/../../../../arm-eabi/lib/thumb\libsysbase.a(read.o)
                              c:/nds/devkitarm/bin/../lib/gcc/arm-eabi/4.3.0/../../../../arm-eabi/lib/thumb\libg.a(lib_a-stdio.o) (_read_r)
c:/nds/devkitarm/bin/../lib/gcc/arm-eabi/4.3.0/../../../../arm-eabi/lib/thumb\libsysbase.a(sbrk.o)
                              c:/nds/devkitarm/bin/../lib/gcc/arm-eabi/4.3.0/../../../../arm-eabi/lib/thumb\libg.a(lib_a-freer.o) (_sbrk_r)
c:/nds/devkitarm/bin/../lib/gcc/arm-eabi/4.3.0/../../../../arm-eabi/lib/thumb\libsysbase.a(stat.o)
                              c:/nds/devkitarm/bin/../lib/gcc/arm-eabi/4.3.0/../../../../arm-eabi/lib/thumb\libg.a(lib_a-sysstat.o) (_stat_r)
c:/nds/devkitarm/bin/../lib/gcc/arm-eabi/4.3.0/../../../../arm-eabi/lib/thumb\libsysbase.a(times.o)
                              c:/nds/libnds/lib\libnds9.a(initSystem.o) (punixTime)
c:/nds/devkitarm/bin/../lib/gcc/arm-eabi/4.3.0/../../../../arm-eabi/lib/thumb\libsysbase.a(write.o)
                              c:/nds/devkitarm/bin/../lib/gcc/arm-eabi/4.3.0/../../../../arm-eabi/lib/thumb\libg.a(lib_a-stdio.o) (_write_r)
c:/nds/devkitarm/bin/../lib/gcc/arm-eabi/4.3.0/../../../../arm-eabi/lib/thumb\libsysbase.a(malloc_vars.o)
                              c:/nds/devkitarm/bin/../lib/gcc/arm-eabi/4.3.0/../../../../arm-eabi/lib/thumb/ds_arm9_crt0.o (fake_heap_end)
c:/nds/devkitarm/bin/../lib/gcc/arm-eabi/4.3.0/../../../../arm-eabi/lib/thumb\libsysbase.a(build_argv.o)
                              c:/nds/devkitarm/bin/../lib/gcc/arm-eabi/4.3.0/../../../../arm-eabi/lib/thumb/ds_arm9_crt0.o (build_argv)
c:/nds/devkitarm/bin/../lib/gcc/arm-eabi/4.3.0/thumb\libgcc.a(_udivsi3.o)
                              c:/nds/devkitarm/bin/../lib/gcc/arm-eabi/4.3.0/../../../../arm-eabi/lib/thumb\libg.a(lib_a-vfiprintf.o) (__aeabi_uidiv)
c:/nds/devkitarm/bin/../lib/gcc/arm-eabi/4.3.0/thumb\libgcc.a(_dvmd_tls.o)
                              c:/nds/devkitarm/bin/../lib/gcc/arm-eabi/4.3.0/thumb\libgcc.a(_udivsi3.o) (__div0)
c:/nds/devkitarm/bin/../lib/gcc/arm-eabi/4.3.0/../../../../arm-eabi/lib/thumb\libg.a(lib_a-errno.o)
                              c:/nds/devkitarm/bin/../lib/gcc/arm-eabi/4.3.0/../../../../arm-eabi/lib/thumb\libsysbase.a(times.o) (__errno)
c:/nds/devkitarm/bin/../lib/gcc/arm-eabi/4.3.0/../../../../arm-eabi/lib/thumb\libg.a(lib_a-strncmp.o)
                              c:/nds/devkitarm/bin/../lib/gcc/arm-eabi/4.3.0/../../../../arm-eabi/lib/thumb\libsysbase.a(iosupport.o) (strncmp)

Allocating common symbols
Common symbol       size              file

outBuffer           0xff              uart.o
punixTime           0x4               c:/nds/devkitarm/bin/../lib/gcc/arm-eabi/4.3.0/../../../../arm-eabi/lib/thumb\libsysbase.a(times.o)
inBuffer            0xff              uart.o

Memory Configuration

Name             Origin             Length             Attributes
rom              0x08000000         0x02000000
ewram            0x02000000         0x003ff000
dtcm             0x0b000000         0x00004000
itcm             0x01000000         0x00008000
*default*        0x00000000         0xffffffff

Linker script and memory map

                0x01000000                __itcm_start = 0x1000000
                0x023ff000                __ewram_end = 0x23ff000
                0x023ff000                __eheap_end = 0x23ff000
                0x0b000000                __dtcm_start = 0xb000000
                0x0b004000                __dtcm_top = 0xb004000
                0x0b003ff8                __irq_flags = (__dtcm_top - 0x8)
                0x0b003ffc                __irq_vector = (__dtcm_top - 0x4)
                0x0b003f00                __sp_svc = (__dtcm_top - 0x100)
                0x0b003e00                __sp_irq = (__sp_svc - 0x100)
                0x0b003d00                __sp_usr = (__sp_irq - 0x100)

.init           0x02000000      0x2dc
                0x02000000                __text_start = .
 *(.init)
 .init          0x02000000      0x2d0 c:/nds/devkitarm/bin/../lib/gcc/arm-eabi/4.3.0/../../../../arm-eabi/lib/thumb/ds_arm9_crt0.o
                0x02000000                _start
 .init          0x020002d0        0x4 c:/nds/devkitarm/bin/../lib/gcc/arm-eabi/4.3.0/thumb/crti.o
                0x020002d0                _init
 .init          0x020002d4        0x8 c:/nds/devkitarm/bin/../lib/gcc/arm-eabi/4.3.0/thumb/crtn.o
                0x020002dc                . = ALIGN (0x4)

.plt
 *(.plt)

.text           0x020002e0     0x655c
 *(EXCLUDE_FILE(*.itcm*) .text)
 .text          0x020002e0        0x0 c:/nds/devkitarm/bin/../lib/gcc/arm-eabi/4.3.0/../../../../arm-eabi/lib/thumb/ds_arm9_crt0.o
 .text          0x020002e0        0x0 c:/nds/devkitarm/bin/../lib/gcc/arm-eabi/4.3.0/thumb/crti.o
 .text          0x020002e0       0x70 c:/nds/devkitarm/bin/../lib/gcc/arm-eabi/4.3.0/thumb/crtbegin.o
 .text          0x02000350      0x2a8 main.o
                0x02000350                main
 .text          0x020005f8       0x90 reboot.o
                0x02000670                can_reboot
                0x020005f8                reboot
 .text          0x02000688      0x124 spi_driver.o
                0x02000764                setupConsecutive_cardSPI
                0x02000688                init_cardSPI
                0x020006c0                readBlocking_cardSPI
                0x020006e0                write_cardSPI
                0x02000720                writeBlocking_cardSPI
                0x020006a0                read_cardSPI
                0x02000770                config_cardSPI
                0x020007a0                disable_cardSPI
 .text          0x020007ac      0x830 uart.o
                0x02000a24                uartSoftwareVersion
                0x02000e70                uartOpen
                0x020009b4                uartClose
                0x02000938                uartPutChar
                0x0200096c                uartAvailable
                0x02000810                uartGetLn
                0x02000994                uartClearOut
                0x02000c6c                uartDigitalRead
                0x02000d44                uartDigitalWrite
                0x020008ec                uartPut
                0x020008ac                uartGetChar
                0x02000dc8                uartSetBaud
                0x02000800                uartGetStr
                0x02000af8                uartAnalogRead
                0x020007ac                uartGet
                0x02000e5c                uartPutStr
                0x02000bf8                uartAnalogWrite
                0x020009a8                uartSetNewlineChar
                0x02000980                uartClearIn
 .text          0x02000fdc      0x580 c:/nds/libnds/lib\libnds9.a(console.o)
                0x02001358                con_write
                0x02001188                consoleInit
                0x02001044                consolePrintChar
                0x02001174                consoleClear
                0x02001310                consoleDemoInit
                0x020012ec                consoleInitDefault
 .text          0x0200155c      0x158 c:/nds/libnds/lib\libnds9.a(initSystem.o)
                0x0200155c                initSystem
 .text          0x020016b4      0x100 c:/nds/libnds/lib\libnds9.a(keys.o)
                0x020016e4                keysSetRepeat
                0x020016d4                keysDownRepeat
                0x020016b4                keysHeld
                0x02001708                keysUp
                0x020016c0                keysDown
                0x02001720                scanKeys
 .text          0x020017b4       0x1c c:/nds/libnds/lib\libnds9.a(touch.o)
                0x020017b4                touchReadXY
 .text          0x020017d0      0x110 c:/nds/libnds/lib\libnds9.a(video.o)
                0x02001890                vramSetBankF
                0x02001820                vramRestoreMainBanks
                0x020018b8                vramSetBankH
                0x02001868                vramSetBankD
                0x0200187c                vramSetBankE
                0x020018a4                vramSetBankG
                0x02001814                vramRestorMainBanks
                0x02001840                vramSetBankB
                0x02001854                vramSetBankC
                0x020018cc                vramSetBankI
                0x020017d0                vramSetMainBanks
                0x0200182c                vramSetBankA
 .text          0x020018e0      0x208 c:/nds/libnds/lib\libnds9.a(interrupts.o)
                0x02001a48                irqEnable
                0x020018e4                irqSet
                0x02001a9c                irqDisable
                0x0200194c                irqInit
                0x020018e0                irqDummy
                0x02001a18                irqInitHandler
                0x02001998                irqClear
 *fill*         0x02001ae8        0x8 ff
 .text          0x02001af0       0x70 c:/nds/libnds/lib\libnds9.a(biosCalls.o)
                0x02001b00                swiSleep
                0x02001b3a                swiDecompressLZSSVram
                0x02001b22                swiFastCopy
                0x02001b26                swiSqrt
                0x02001af0                swiSoftReset
                0x02001b2a                swiCRC16
                0x02001b3e                swiDecompressHuffman
                0x02001b56                swiSetHaltCR
                0x02001b0c                swiRemainder
                0x02001b32                swiUnpackBits
                0x02001b36                swiDecompressLZSSWram
                0x02001b52                swiDecodeDelta16
                0x02001af4                swiDelay
                0x02001b12                swiDivMod
                0x02001b46                swiDecompressRLEVram
                0x02001b42                swiDecompressRLEWram
                0x02001b4e                swiDecodeDelta8
                0x02001b08                swiDivide
                0x02001b04                swiChangeSoundBias
                0x02001afc                swiWaitForVBlank
                0x02001af8                swiIntrWait
                0x02001b2e                swiIsDebugger
                0x02001b4a                swiWaitForIRQ
                0x02001b1e                swiCopy
 .text          0x02001b60        0x0 c:/nds/libnds/lib\libnds9.a(interruptDispatcher.o)
 .text          0x02001b60        0x0 c:/nds/libnds/lib\libnds9.a(default_font.o)
 .text          0x02001b60        0x0 c:/nds/devkitarm/bin/../lib/gcc/arm-eabi/4.3.0/../../../../arm-eabi/lib/thumb\libg.a(lib_a-impure.o)
 .text          0x02001b60       0x88 c:/nds/devkitarm/bin/../lib/gcc/arm-eabi/4.3.0/../../../../arm-eabi/lib/thumb\libg.a(lib_a-init.o)
                0x02001b90                __libc_init_array
                0x02001b60                __libc_fini_array
 .text          0x02001be8       0x3c c:/nds/devkitarm/bin/../lib/gcc/arm-eabi/4.3.0/../../../../arm-eabi/lib/thumb\libg.a(lib_a-iprintf.o)
                0x02001be8                _iprintf_r
                0x02001c00                iprintf
 .text          0x02001c24       0x88 c:/nds/devkitarm/bin/../lib/gcc/arm-eabi/4.3.0/../../../../arm-eabi/lib/thumb\libg.a(lib_a-memcpy.o)
                0x02001c24                memcpy
 .text          0x02001cac       0xb0 c:/nds/devkitarm/bin/../lib/gcc/arm-eabi/4.3.0/../../../../arm-eabi/lib/thumb\libg.a(lib_a-memmove.o)
                0x02001cac                memmove
 .text          0x02001d5c      0x10c c:/nds/devkitarm/bin/../lib/gcc/arm-eabi/4.3.0/../../../../arm-eabi/lib/thumb\libg.a(lib_a-setvbuf.o)
                0x02001d5c                setvbuf
 .text          0x02001e68       0xa4 c:/nds/devkitarm/bin/../lib/gcc/arm-eabi/4.3.0/../../../../arm-eabi/lib/thumb\libg.a(lib_a-siscanf.o)
                0x02001e6c                _siscanf_r
                0x02001ebc                siscanf
 .text          0x02001f0c       0x44 c:/nds/devkitarm/bin/../lib/gcc/arm-eabi/4.3.0/../../../../arm-eabi/lib/thumb\libg.a(lib_a-strlen.o)
                0x02001f0c                strlen
 .text          0x02001f50       0x1c c:/nds/devkitarm/bin/../lib/gcc/arm-eabi/4.3.0/../../../../arm-eabi/lib/thumb\libg.a(lib_a-sysstat.o)
                0x02001f50                stat
 .text          0x02001f6c      0xcac c:/nds/devkitarm/bin/../lib/gcc/arm-eabi/4.3.0/../../../../arm-eabi/lib/thumb\libg.a(lib_a-vfiprintf.o)
                0x02002bf4                vfiprintf
                0x02001f8c                _vfiprintf_r
 .text          0x02002c18      0x93c c:/nds/devkitarm/bin/../lib/gcc/arm-eabi/4.3.0/../../../../arm-eabi/lib/thumb\libg.a(lib_a-vfiscanf.o)
                0x020034ec                _vfiscanf_r
                0x0200351c                vfiscanf
                0x02002c18                __svfiscanf_r
                0x020034c8                __svfiscanf
 .text          0x02003554       0x68 c:/nds/devkitarm/bin/../lib/gcc/arm-eabi/4.3.0/../../../../arm-eabi/lib/thumb\libg.a(lib_a-wcrtomb.o)
                0x02003554                _wcrtomb_r
                0x02003598                wcrtomb
 .text          0x020035bc      0x10c c:/nds/devkitarm/bin/../lib/gcc/arm-eabi/4.3.0/../../../../arm-eabi/lib/thumb\libg.a(lib_a-wcsrtombs.o)
                0x020035bc                _wcsrtombs_r
                0x020036a0                wcsrtombs
 .text          0x020036c8      0x2c8 c:/nds/devkitarm/bin/../lib/gcc/arm-eabi/4.3.0/../../../../arm-eabi/lib/thumb\libg.a(lib_a-wctomb_r.o)
                0x020036c8                _wctomb_r
 .text          0x02003990       0xb8 c:/nds/devkitarm/bin/../lib/gcc/arm-eabi/4.3.0/../../../../arm-eabi/lib/thumb\libg.a(lib_a-wsetup.o)
                0x02003990                __swsetup
 .text          0x02003a48        0x0 c:/nds/devkitarm/bin/../lib/gcc/arm-eabi/4.3.0/../../../../arm-eabi/lib/thumb\libg.a(lib_a-ctype_.o)
 .text          0x02003a48      0x108 c:/nds/devkitarm/bin/../lib/gcc/arm-eabi/4.3.0/../../../../arm-eabi/lib/thumb\libg.a(lib_a-fflush.o)
                0x02003a48                fflush
 .text          0x02003b50      0x1e8 c:/nds/devkitarm/bin/../lib/gcc/arm-eabi/4.3.0/../../../../arm-eabi/lib/thumb\libg.a(lib_a-findfp.o)
                0x02003b50                __sinit
                0x02003c80                __sfmoreglue
                0x02003c64                _cleanup
                0x02003c50                _cleanup_r
                0x02003c34                __fp_lock_all
                0x02003c00                __sfp_lock_acquire
                0x02003cb4                __sfp
                0x02003c0c                __sinit_lock_release
                0x02003c18                __fp_unlock_all
                0x02003c04                __sfp_lock_release
                0x02003c08                __sinit_lock_acquire
 .text          0x02003d38      0x188 c:/nds/devkitarm/bin/../lib/gcc/arm-eabi/4.3.0/../../../../arm-eabi/lib/thumb\libg.a(lib_a-fread.o)
                0x02003e98                fread
                0x02003d38                _fread_r
 .text          0x02003ec0      0x23c c:/nds/devkitarm/bin/../lib/gcc/arm-eabi/4.3.0/../../../../arm-eabi/lib/thumb\libg.a(lib_a-freer.o)
                0x02003f68                _free_r
                0x02003ec0                _malloc_trim_r
 .text          0x020040fc      0x2bc c:/nds/devkitarm/bin/../lib/gcc/arm-eabi/4.3.0/../../../../arm-eabi/lib/thumb\libg.a(lib_a-fvwrite.o)
                0x020040fc                __sfvwrite_r
 .text          0x020043b8       0xc4 c:/nds/devkitarm/bin/../lib/gcc/arm-eabi/4.3.0/../../../../arm-eabi/lib/thumb\libg.a(lib_a-fwalk.o)
                0x0200441c                _fwalk
                0x020043b8                _fwalk_reent
 .text          0x0200447c       0xec c:/nds/devkitarm/bin/../lib/gcc/arm-eabi/4.3.0/../../../../arm-eabi/lib/thumb\libg.a(lib_a-iswspace.o)
                0x0200447c                iswspace
 .text          0x02004568      0x178 c:/nds/devkitarm/bin/../lib/gcc/arm-eabi/4.3.0/../../../../arm-eabi/lib/thumb\libg.a(lib_a-jp2uc.o)
                0x02004568                __jp2uc
 .text          0x020046e0      0x28c c:/nds/devkitarm/bin/../lib/gcc/arm-eabi/4.3.0/../../../../arm-eabi/lib/thumb\libg.a(lib_a-locale.o)
                0x020046fc                _setlocale_r
                0x020046e0                __locale_charset
                0x020046ec                _localeconv_r
                0x02004950                setlocale
                0x020046f4                localeconv
 .text          0x0200496c       0xe8 c:/nds/devkitarm/bin/../lib/gcc/arm-eabi/4.3.0/../../../../arm-eabi/lib/thumb\libg.a(lib_a-makebuf.o)
                0x0200496c                __smakebuf
 .text          0x02004a54       0x30 c:/nds/devkitarm/bin/../lib/gcc/arm-eabi/4.3.0/../../../../arm-eabi/lib/thumb\libg.a(lib_a-malloc.o)
                0x02004a6c                malloc
                0x02004a54                free
 .text          0x02004a84      0x518 c:/nds/devkitarm/bin/../lib/gcc/arm-eabi/4.3.0/../../../../arm-eabi/lib/thumb\libg.a(lib_a-mallocr.o)
                0x02004a84                _malloc_r
 .text          0x02004f9c       0x70 c:/nds/devkitarm/bin/../lib/gcc/arm-eabi/4.3.0/../../../../arm-eabi/lib/thumb\libg.a(lib_a-mbrtowc.o)
                0x02004fe4                mbrtowc
                0x02004f9c                _mbrtowc_r
 .text          0x0200500c      0x69c c:/nds/devkitarm/bin/../lib/gcc/arm-eabi/4.3.0/../../../../arm-eabi/lib/thumb\libg.a(lib_a-mbtowc_r.o)
                0x0200500c                _mbtowc_r
 .text          0x020056a8       0x90 c:/nds/devkitarm/bin/../lib/gcc/arm-eabi/4.3.0/../../../../arm-eabi/lib/thumb\libg.a(lib_a-memchr.o)
                0x020056a8                memchr
 .text          0x02005738       0x84 c:/nds/devkitarm/bin/../lib/gcc/arm-eabi/4.3.0/../../../../arm-eabi/lib/thumb\libg.a(lib_a-memset.o)
                0x02005738                memset
 .text          0x020057bc        0x8 c:/nds/devkitarm/bin/../lib/gcc/arm-eabi/4.3.0/../../../../arm-eabi/lib/thumb\libg.a(lib_a-mlock.o)
                0x020057c0                __malloc_unlock
                0x020057bc                __malloc_lock
 .text          0x020057c4      0x340 c:/nds/devkitarm/bin/../lib/gcc/arm-eabi/4.3.0/../../../../arm-eabi/lib/thumb\libg.a(lib_a-reallocr.o)
                0x020057c4                _realloc_r
 .text          0x02005b04      0x11c c:/nds/devkitarm/bin/../lib/gcc/arm-eabi/4.3.0/../../../../arm-eabi/lib/thumb\libg.a(lib_a-refill.o)
                0x02005b20                __srefill_r
 .text          0x02005c20       0x78 c:/nds/devkitarm/bin/../lib/gcc/arm-eabi/4.3.0/../../../../arm-eabi/lib/thumb\libg.a(lib_a-sccl.o)
                0x02005c20                __sccl
 .text          0x02005c98       0xe0 c:/nds/devkitarm/bin/../lib/gcc/arm-eabi/4.3.0/../../../../arm-eabi/lib/thumb\libg.a(lib_a-stdio.o)
                0x02005cb4                __sseek
                0x02005d3c                __sread
                0x02005c98                __sclose
                0x02005cf4                __swrite
 .text          0x02005d78       0x5c c:/nds/devkitarm/bin/../lib/gcc/arm-eabi/4.3.0/../../../../arm-eabi/lib/thumb\libg.a(lib_a-strcmp.o)
                0x02005d78                strcmp
 .text          0x02005dd4       0x48 c:/nds/devkitarm/bin/../lib/gcc/arm-eabi/4.3.0/../../../../arm-eabi/lib/thumb\libg.a(lib_a-strcpy.o)
                0x02005dd4                strcpy
 .text          0x02005e1c      0x188 c:/nds/devkitarm/bin/../lib/gcc/arm-eabi/4.3.0/../../../../arm-eabi/lib/thumb\libg.a(lib_a-strtol.o)
                0x02005f80                strtol
                0x02005e1c                _strtol_r
 .text          0x02005fa4      0x18c c:/nds/devkitarm/bin/../lib/gcc/arm-eabi/4.3.0/../../../../arm-eabi/lib/thumb\libg.a(lib_a-strtoul.o)
                0x0200610c                strtoul
                0x02005fa4                _strtoul_r
 .text          0x02006130      0x170 c:/nds/devkitarm/bin/../lib/gcc/arm-eabi/4.3.0/../../../../arm-eabi/lib/thumb\libg.a(lib_a-ungetc.o)
                0x02006284                ungetc
                0x02006130                __submore
                0x020061ac                _ungetc_r
 .text          0x020062a0       0xc4 c:/nds/devkitarm/bin/../lib/gcc/arm-eabi/4.3.0/../../../../arm-eabi/lib/thumb\libg.a(lib_a-fclose.o)
                0x020062a0                _fclose_r
                0x02006348                fclose
 .text          0x02006364      0x114 c:/nds/devkitarm/bin/../lib/gcc/arm-eabi/4.3.0/../../../../arm-eabi/lib/thumb\libsysbase.a(iosupport.o)
                0x02006454                RemoveDevice
                0x02006364                setDefaultDevice
                0x02006378                AddDevice
                0x020063f0                FindDevice
 .text          0x02006478       0x44 c:/nds/devkitarm/bin/../lib/gcc/arm-eabi/4.3.0/../../../../arm-eabi/lib/thumb\libsysbase.a(close.o)
                0x02006478                _close_r
 .text          0x020064bc       0x4c c:/nds/devkitarm/bin/../lib/gcc/arm-eabi/4.3.0/../../../../arm-eabi/lib/thumb\libsysbase.a(fstat.o)
                0x020064bc                _fstat_r
 .text          0x02006508        0x4 c:/nds/devkitarm/bin/../lib/gcc/arm-eabi/4.3.0/../../../../arm-eabi/lib/thumb\libsysbase.a(isatty.o)
                0x02006508                isatty
 .text          0x0200650c       0x3c c:/nds/devkitarm/bin/../lib/gcc/arm-eabi/4.3.0/../../../../arm-eabi/lib/thumb\libsysbase.a(lseek.o)
                0x0200650c                _lseek_r
 .text          0x02006548       0x44 c:/nds/devkitarm/bin/../lib/gcc/arm-eabi/4.3.0/../../../../arm-eabi/lib/thumb\libsysbase.a(read.o)
                0x02006548                _read_r
 .text          0x0200658c       0x54 c:/nds/devkitarm/bin/../lib/gcc/arm-eabi/4.3.0/../../../../arm-eabi/lib/thumb\libsysbase.a(sbrk.o)
                0x0200658c                _sbrk_r
 .text          0x020065e0       0x40 c:/nds/devkitarm/bin/../lib/gcc/arm-eabi/4.3.0/../../../../arm-eabi/lib/thumb\libsysbase.a(stat.o)
                0x020065e0                _stat_r
 .text          0x02006620       0x4c c:/nds/devkitarm/bin/../lib/gcc/arm-eabi/4.3.0/../../../../arm-eabi/lib/thumb\libsysbase.a(times.o)
                0x02006628                _gettimeofday_r
                0x02006620                _times_r
                0x02006654                _times
 .text          0x0200666c       0x44 c:/nds/devkitarm/bin/../lib/gcc/arm-eabi/4.3.0/../../../../arm-eabi/lib/thumb\libsysbase.a(write.o)
                0x0200666c                _write_r
 .text          0x020066b0        0x0 c:/nds/devkitarm/bin/../lib/gcc/arm-eabi/4.3.0/../../../../arm-eabi/lib/thumb\libsysbase.a(malloc_vars.o)
 .text          0x020066b0       0x54 c:/nds/devkitarm/bin/../lib/gcc/arm-eabi/4.3.0/../../../../arm-eabi/lib/thumb\libsysbase.a(build_argv.o)
                0x020066b0                build_argv
 .text          0x02006704       0x8c c:/nds/devkitarm/bin/../lib/gcc/arm-eabi/4.3.0/thumb\libgcc.a(_udivsi3.o)
                0x02006704                __udivsi3
                0x02006704                __aeabi_uidiv
                0x02006780                __aeabi_uidivmod
 .text          0x02006790        0x4 c:/nds/devkitarm/bin/../lib/gcc/arm-eabi/4.3.0/thumb\libgcc.a(_dvmd_tls.o)
                0x02006790                __aeabi_ldiv0
                0x02006790                __div0
                0x02006790                __aeabi_idiv0
 .text          0x02006794        0xc c:/nds/devkitarm/bin/../lib/gcc/arm-eabi/4.3.0/../../../../arm-eabi/lib/thumb\libg.a(lib_a-errno.o)
                0x02006794                __errno
 .text          0x020067a0       0x9c c:/nds/devkitarm/bin/../lib/gcc/arm-eabi/4.3.0/../../../../arm-eabi/lib/thumb\libg.a(lib_a-strncmp.o)
                0x020067a0                strncmp
 .text          0x0200683c        0x0 c:/nds/devkitarm/bin/../lib/gcc/arm-eabi/4.3.0/thumb/crtend.o
 .text          0x0200683c        0x0 c:/nds/devkitarm/bin/../lib/gcc/arm-eabi/4.3.0/thumb/crtn.o
 *(.text.*)
 *(.stub)
 *(.gnu.warning)
 *(.gnu.linkonce.t*)
 *(.glue_7)
 .glue_7        0x0200683c        0x0 c:/nds/devkitarm/bin/../lib/gcc/arm-eabi/4.3.0/../../../../arm-eabi/lib/thumb/ds_arm9_crt0.o
 .glue_7        0x0200683c        0x0 c:/nds/devkitarm/bin/../lib/gcc/arm-eabi/4.3.0/thumb/crti.o
 .glue_7        0x0200683c        0x0 c:/nds/devkitarm/bin/../lib/gcc/arm-eabi/4.3.0/thumb/crtbegin.o
 .glue_7        0x0200683c        0x0 main.o
 .glue_7        0x0200683c        0x0 reboot.o
 .glue_7        0x0200683c        0x0 spi_driver.o
 .glue_7        0x0200683c        0x0 uart.o
 .glue_7        0x0200683c        0x0 c:/nds/libnds/lib\libnds9.a(console.o)
 .glue_7        0x0200683c        0x0 c:/nds/libnds/lib\libnds9.a(initSystem.o)
 .glue_7        0x0200683c        0x0 c:/nds/libnds/lib\libnds9.a(keys.o)
 .glue_7        0x0200683c        0x0 c:/nds/libnds/lib\libnds9.a(touch.o)
 .glue_7        0x0200683c        0x0 c:/nds/libnds/lib\libnds9.a(video.o)
 .glue_7        0x0200683c        0x0 c:/nds/libnds/lib\libnds9.a(interrupts.o)
 .glue_7        0x0200683c        0x0 c:/nds/libnds/lib\libnds9.a(biosCalls.o)
 .glue_7        0x0200683c        0x0 c:/nds/libnds/lib\libnds9.a(interruptDispatcher.o)
 .glue_7        0x0200683c        0x0 c:/nds/libnds/lib\libnds9.a(default_font.o)
 .glue_7        0x0200683c        0x0 c:/nds/devkitarm/bin/../lib/gcc/arm-eabi/4.3.0/../../../../arm-eabi/lib/thumb\libg.a(lib_a-impure.o)
 .glue_7        0x0200683c        0x0 c:/nds/devkitarm/bin/../lib/gcc/arm-eabi/4.3.0/../../../../arm-eabi/lib/thumb\libg.a(lib_a-init.o)
 .glue_7        0x0200683c        0x0 c:/nds/devkitarm/bin/../lib/gcc/arm-eabi/4.3.0/../../../../arm-eabi/lib/thumb\libg.a(lib_a-iprintf.o)
 .glue_7        0x0200683c        0x0 c:/nds/devkitarm/bin/../lib/gcc/arm-eabi/4.3.0/../../../../arm-eabi/lib/thumb\libg.a(lib_a-memcpy.o)
 .glue_7        0x0200683c        0x0 c:/nds/devkitarm/bin/../lib/gcc/arm-eabi/4.3.0/../../../../arm-eabi/lib/thumb\libg.a(lib_a-memmove.o)
 .glue_7        0x0200683c        0x0 c:/nds/devkitarm/bin/../lib/gcc/arm-eabi/4.3.0/../../../../arm-eabi/lib/thumb\libg.a(lib_a-setvbuf.o)
 .glue_7        0x0200683c        0x0 c:/nds/devkitarm/bin/../lib/gcc/arm-eabi/4.3.0/../../../../arm-eabi/lib/thumb\libg.a(lib_a-siscanf.o)
 .glue_7        0x0200683c        0x0 c:/nds/devkitarm/bin/../lib/gcc/arm-eabi/4.3.0/../../../../arm-eabi/lib/thumb\libg.a(lib_a-strlen.o)
 .glue_7        0x0200683c        0x0 c:/nds/devkitarm/bin/../lib/gcc/arm-eabi/4.3.0/../../../../arm-eabi/lib/thumb\libg.a(lib_a-sysstat.o)
 .glue_7        0x0200683c        0x0 c:/nds/devkitarm/bin/../lib/gcc/arm-eabi/4.3.0/../../../../arm-eabi/lib/thumb\libg.a(lib_a-vfiprintf.o)
 .glue_7        0x0200683c        0x0 c:/nds/devkitarm/bin/../lib/gcc/arm-eabi/4.3.0/../../../../arm-eabi/lib/thumb\libg.a(lib_a-vfiscanf.o)
 .glue_7        0x0200683c        0x0 c:/nds/devkitarm/bin/../lib/gcc/arm-eabi/4.3.0/../../../../arm-eabi/lib/thumb\libg.a(lib_a-wcrtomb.o)
 .glue_7        0x0200683c        0x0 c:/nds/devkitarm/bin/../lib/gcc/arm-eabi/4.3.0/../../../../arm-eabi/lib/thumb\libg.a(lib_a-wcsrtombs.o)
 .glue_7        0x0200683c        0x0 c:/nds/devkitarm/bin/../lib/gcc/arm-eabi/4.3.0/../../../../arm-eabi/lib/thumb\libg.a(lib_a-wctomb_r.o)
 .glue_7        0x0200683c        0x0 c:/nds/devkitarm/bin/../lib/gcc/arm-eabi/4.3.0/../../../../arm-eabi/lib/thumb\libg.a(lib_a-wsetup.o)
 .glue_7        0x0200683c        0x0 c:/nds/devkitarm/bin/../lib/gcc/arm-eabi/4.3.0/../../../../arm-eabi/lib/thumb\libg.a(lib_a-ctype_.o)
 .glue_7        0x0200683c        0x0 c:/nds/devkitarm/bin/../lib/gcc/arm-eabi/4.3.0/../../../../arm-eabi/lib/thumb\libg.a(lib_a-fflush.o)
 .glue_7        0x0200683c        0x0 c:/nds/devkitarm/bin/../lib/gcc/arm-eabi/4.3.0/../../../../arm-eabi/lib/thumb\libg.a(lib_a-findfp.o)
 .glue_7        0x0200683c        0x0 c:/nds/devkitarm/bin/../lib/gcc/arm-eabi/4.3.0/../../../../arm-eabi/lib/thumb\libg.a(lib_a-fread.o)
 .glue_7        0x0200683c        0x0 c:/nds/devkitarm/bin/../lib/gcc/arm-eabi/4.3.0/../../../../arm-eabi/lib/thumb\libg.a(lib_a-freer.o)
 .glue_7        0x0200683c        0x0 c:/nds/devkitarm/bin/../lib/gcc/arm-eabi/4.3.0/../../../../arm-eabi/lib/thumb\libg.a(lib_a-fvwrite.o)
 .glue_7        0x0200683c        0x0 c:/nds/devkitarm/bin/../lib/gcc/arm-eabi/4.3.0/../../../../arm-eabi/lib/thumb\libg.a(lib_a-fwalk.o)
 .glue_7        0x0200683c        0x0 c:/nds/devkitarm/bin/../lib/gcc/arm-eabi/4.3.0/../../../../arm-eabi/lib/thumb\libg.a(lib_a-iswspace.o)
 .glue_7        0x0200683c        0x0 c:/nds/devkitarm/bin/../lib/gcc/arm-eabi/4.3.0/../../../../arm-eabi/lib/thumb\libg.a(lib_a-jp2uc.o)
 .glue_7        0x0200683c        0x0 c:/nds/devkitarm/bin/../lib/gcc/arm-eabi/4.3.0/../../../../arm-eabi/lib/thumb\libg.a(lib_a-locale.o)
 .glue_7        0x0200683c        0x0 c:/nds/devkitarm/bin/../lib/gcc/arm-eabi/4.3.0/../../../../arm-eabi/lib/thumb\libg.a(lib_a-makebuf.o)
 .glue_7        0x0200683c        0x0 c:/nds/devkitarm/bin/../lib/gcc/arm-eabi/4.3.0/../../../../arm-eabi/lib/thumb\libg.a(lib_a-malloc.o)
 .glue_7        0x0200683c        0x0 c:/nds/devkitarm/bin/../lib/gcc/arm-eabi/4.3.0/../../../../arm-eabi/lib/thumb\libg.a(lib_a-mallocr.o)
 .glue_7        0x0200683c        0x0 c:/nds/devkitarm/bin/../lib/gcc/arm-eabi/4.3.0/../../../../arm-eabi/lib/thumb\libg.a(lib_a-mbrtowc.o)
 .glue_7        0x0200683c        0x0 c:/nds/devkitarm/bin/../lib/gcc/arm-eabi/4.3.0/../../../../arm-eabi/lib/thumb\libg.a(lib_a-mbtowc_r.o)
 .glue_7        0x0200683c        0x0 c:/nds/devkitarm/bin/../lib/gcc/arm-eabi/4.3.0/../../../../arm-eabi/lib/thumb\libg.a(lib_a-memchr.o)
 .glue_7        0x0200683c        0x0 c:/nds/devkitarm/bin/../lib/gcc/arm-eabi/4.3.0/../../../../arm-eabi/lib/thumb\libg.a(lib_a-memset.o)
 .glue_7        0x0200683c        0x0 c:/nds/devkitarm/bin/../lib/gcc/arm-eabi/4.3.0/../../../../arm-eabi/lib/thumb\libg.a(lib_a-mlock.o)
 .glue_7        0x0200683c        0x0 c:/nds/devkitarm/bin/../lib/gcc/arm-eabi/4.3.0/../../../../arm-eabi/lib/thumb\libg.a(lib_a-reallocr.o)
 .glue_7        0x0200683c        0x0 c:/nds/devkitarm/bin/../lib/gcc/arm-eabi/4.3.0/../../../../arm-eabi/lib/thumb\libg.a(lib_a-refill.o)
 .glue_7        0x0200683c        0x0 c:/nds/devkitarm/bin/../lib/gcc/arm-eabi/4.3.0/../../../../arm-eabi/lib/thumb\libg.a(lib_a-sccl.o)
 .glue_7        0x0200683c        0x0 c:/nds/devkitarm/bin/../lib/gcc/arm-eabi/4.3.0/../../../../arm-eabi/lib/thumb\libg.a(lib_a-stdio.o)
 .glue_7        0x0200683c        0x0 c:/nds/devkitarm/bin/../lib/gcc/arm-eabi/4.3.0/../../../../arm-eabi/lib/thumb\libg.a(lib_a-strcmp.o)
 .glue_7        0x0200683c        0x0 c:/nds/devkitarm/bin/../lib/gcc/arm-eabi/4.3.0/../../../../arm-eabi/lib/thumb\libg.a(lib_a-strcpy.o)
 .glue_7        0x0200683c        0x0 c:/nds/devkitarm/bin/../lib/gcc/arm-eabi/4.3.0/../../../../arm-eabi/lib/thumb\libg.a(lib_a-strtol.o)
 .glue_7        0x0200683c        0x0 c:/nds/devkitarm/bin/../lib/gcc/arm-eabi/4.3.0/../../../../arm-eabi/lib/thumb\libg.a(lib_a-strtoul.o)
 .glue_7        0x0200683c        0x0 c:/nds/devkitarm/bin/../lib/gcc/arm-eabi/4.3.0/../../../../arm-eabi/lib/thumb\libg.a(lib_a-ungetc.o)
 .glue_7        0x0200683c        0x0 c:/nds/devkitarm/bin/../lib/gcc/arm-eabi/4.3.0/../../../../arm-eabi/lib/thumb\libg.a(lib_a-fclose.o)
 .glue_7        0x0200683c        0x0 c:/nds/devkitarm/bin/../lib/gcc/arm-eabi/4.3.0/../../../../arm-eabi/lib/thumb\libsysbase.a(iosupport.o)
 .glue_7        0x0200683c        0x0 c:/nds/devkitarm/bin/../lib/gcc/arm-eabi/4.3.0/../../../../arm-eabi/lib/thumb\libsysbase.a(close.o)
 .glue_7        0x0200683c        0x0 c:/nds/devkitarm/bin/../lib/gcc/arm-eabi/4.3.0/../../../../arm-eabi/lib/thumb\libsysbase.a(fstat.o)
 .glue_7        0x0200683c        0x0 c:/nds/devkitarm/bin/../lib/gcc/arm-eabi/4.3.0/../../../../arm-eabi/lib/thumb\libsysbase.a(isatty.o)
 .glue_7        0x0200683c        0x0 c:/nds/devkitarm/bin/../lib/gcc/arm-eabi/4.3.0/../../../../arm-eabi/lib/thumb\libsysbase.a(lseek.o)
 .glue_7        0x0200683c        0x0 c:/nds/devkitarm/bin/../lib/gcc/arm-eabi/4.3.0/../../../../arm-eabi/lib/thumb\libsysbase.a(read.o)
 .glue_7        0x0200683c        0x0 c:/nds/devkitarm/bin/../lib/gcc/arm-eabi/4.3.0/../../../../arm-eabi/lib/thumb\libsysbase.a(sbrk.o)
 .glue_7        0x0200683c        0x0 c:/nds/devkitarm/bin/../lib/gcc/arm-eabi/4.3.0/../../../../arm-eabi/lib/thumb\libsysbase.a(stat.o)
 .glue_7        0x0200683c        0x0 c:/nds/devkitarm/bin/../lib/gcc/arm-eabi/4.3.0/../../../../arm-eabi/lib/thumb\libsysbase.a(times.o)
 .glue_7        0x0200683c        0x0 c:/nds/devkitarm/bin/../lib/gcc/arm-eabi/4.3.0/../../../../arm-eabi/lib/thumb\libsysbase.a(write.o)
 .glue_7        0x0200683c        0x0 c:/nds/devkitarm/bin/../lib/gcc/arm-eabi/4.3.0/../../../../arm-eabi/lib/thumb\libsysbase.a(malloc_vars.o)
 .glue_7        0x0200683c        0x0 c:/nds/devkitarm/bin/../lib/gcc/arm-eabi/4.3.0/../../../../arm-eabi/lib/thumb\libsysbase.a(build_argv.o)
 .glue_7        0x0200683c        0x0 c:/nds/devkitarm/bin/../lib/gcc/arm-eabi/4.3.0/thumb\libgcc.a(_udivsi3.o)
 .glue_7        0x0200683c        0x0 c:/nds/devkitarm/bin/../lib/gcc/arm-eabi/4.3.0/thumb\libgcc.a(_dvmd_tls.o)
 .glue_7        0x0200683c        0x0 c:/nds/devkitarm/bin/../lib/gcc/arm-eabi/4.3.0/../../../../arm-eabi/lib/thumb\libg.a(lib_a-errno.o)
 .glue_7        0x0200683c        0x0 c:/nds/devkitarm/bin/../lib/gcc/arm-eabi/4.3.0/../../../../arm-eabi/lib/thumb\libg.a(lib_a-strncmp.o)
 .glue_7        0x0200683c        0x0 c:/nds/devkitarm/bin/../lib/gcc/arm-eabi/4.3.0/thumb/crtend.o
 .glue_7        0x0200683c        0x0 c:/nds/devkitarm/bin/../lib/gcc/arm-eabi/4.3.0/thumb/crtn.o
 *(.glue_7t)
 .glue_7t       0x0200683c        0x0 c:/nds/devkitarm/bin/../lib/gcc/arm-eabi/4.3.0/../../../../arm-eabi/lib/thumb/ds_arm9_crt0.o
 .glue_7t       0x0200683c        0x0 c:/nds/devkitarm/bin/../lib/gcc/arm-eabi/4.3.0/thumb/crti.o
 .glue_7t       0x0200683c        0x0 c:/nds/devkitarm/bin/../lib/gcc/arm-eabi/4.3.0/thumb/crtbegin.o
 .glue_7t       0x0200683c        0x0 main.o
 .glue_7t       0x0200683c        0x0 reboot.o
 .glue_7t       0x0200683c        0x0 spi_driver.o
 .glue_7t       0x0200683c        0x0 uart.o
 .glue_7t       0x0200683c        0x0 c:/nds/libnds/lib\libnds9.a(console.o)
 .glue_7t       0x0200683c        0x0 c:/nds/libnds/lib\libnds9.a(initSystem.o)
 .glue_7t       0x0200683c        0x0 c:/nds/libnds/lib\libnds9.a(keys.o)
 .glue_7t       0x0200683c        0x0 c:/nds/libnds/lib\libnds9.a(touch.o)
 .glue_7t       0x0200683c        0x0 c:/nds/libnds/lib\libnds9.a(video.o)
 .glue_7t       0x0200683c        0x0 c:/nds/libnds/lib\libnds9.a(interrupts.o)
 .glue_7t       0x0200683c        0x0 c:/nds/libnds/lib\libnds9.a(biosCalls.o)
 .glue_7t       0x0200683c        0x0 c:/nds/libnds/lib\libnds9.a(interruptDispatcher.o)
 .glue_7t       0x0200683c        0x0 c:/nds/libnds/lib\libnds9.a(default_font.o)
 .glue_7t       0x0200683c        0x0 c:/nds/devkitarm/bin/../lib/gcc/arm-eabi/4.3.0/../../../../arm-eabi/lib/thumb\libg.a(lib_a-impure.o)
 .glue_7t       0x0200683c        0x0 c:/nds/devkitarm/bin/../lib/gcc/arm-eabi/4.3.0/../../../../arm-eabi/lib/thumb\libg.a(lib_a-init.o)
 .glue_7t       0x0200683c        0x0 c:/nds/devkitarm/bin/../lib/gcc/arm-eabi/4.3.0/../../../../arm-eabi/lib/thumb\libg.a(lib_a-iprintf.o)
 .glue_7t       0x0200683c        0x0 c:/nds/devkitarm/bin/../lib/gcc/arm-eabi/4.3.0/../../../../arm-eabi/lib/thumb\libg.a(lib_a-memcpy.o)
 .glue_7t       0x0200683c        0x0 c:/nds/devkitarm/bin/../lib/gcc/arm-eabi/4.3.0/../../../../arm-eabi/lib/thumb\libg.a(lib_a-memmove.o)
 .glue_7t       0x0200683c        0x0 c:/nds/devkitarm/bin/../lib/gcc/arm-eabi/4.3.0/../../../../arm-eabi/lib/thumb\libg.a(lib_a-setvbuf.o)
 .glue_7t       0x0200683c        0x0 c:/nds/devkitarm/bin/../lib/gcc/arm-eabi/4.3.0/../../../../arm-eabi/lib/thumb\libg.a(lib_a-siscanf.o)
 .glue_7t       0x0200683c        0x0 c:/nds/devkitarm/bin/../lib/gcc/arm-eabi/4.3.0/../../../../arm-eabi/lib/thumb\libg.a(lib_a-strlen.o)
 .glue_7t       0x0200683c        0x0 c:/nds/devkitarm/bin/../lib/gcc/arm-eabi/4.3.0/../../../../arm-eabi/lib/thumb\libg.a(lib_a-sysstat.o)
 .glue_7t       0x0200683c        0x0 c:/nds/devkitarm/bin/../lib/gcc/arm-eabi/4.3.0/../../../../arm-eabi/lib/thumb\libg.a(lib_a-vfiprintf.o)
 .glue_7t       0x0200683c        0x0 c:/nds/devkitarm/bin/../lib/gcc/arm-eabi/4.3.0/../../../../arm-eabi/lib/thumb\libg.a(lib_a-vfiscanf.o)
 .glue_7t       0x0200683c        0x0 c:/nds/devkitarm/bin/../lib/gcc/arm-eabi/4.3.0/../../../../arm-eabi/lib/thumb\libg.a(lib_a-wcrtomb.o)
 .glue_7t       0x0200683c        0x0 c:/nds/devkitarm/bin/../lib/gcc/arm-eabi/4.3.0/../../../../arm-eabi/lib/thumb\libg.a(lib_a-wcsrtombs.o)
 .glue_7t       0x0200683c        0x0 c:/nds/devkitarm/bin/../lib/gcc/arm-eabi/4.3.0/../../../../arm-eabi/lib/thumb\libg.a(lib_a-wctomb_r.o)
 .glue_7t       0x0200683c        0x0 c:/nds/devkitarm/bin/../lib/gcc/arm-eabi/4.3.0/../../../../arm-eabi/lib/thumb\libg.a(lib_a-wsetup.o)
 .glue_7t       0x0200683c        0x0 c:/nds/devkitarm/bin/../lib/gcc/arm-eabi/4.3.0/../../../../arm-eabi/lib/thumb\libg.a(lib_a-ctype_.o)
 .glue_7t       0x0200683c        0x0 c:/nds/devkitarm/bin/../lib/gcc/arm-eabi/4.3.0/../../../../arm-eabi/lib/thumb\libg.a(lib_a-fflush.o)
 .glue_7t       0x0200683c        0x0 c:/nds/devkitarm/bin/../lib/gcc/arm-eabi/4.3.0/../../../../arm-eabi/lib/thumb\libg.a(lib_a-findfp.o)
 .glue_7t       0x0200683c        0x0 c:/nds/devkitarm/bin/../lib/gcc/arm-eabi/4.3.0/../../../../arm-eabi/lib/thumb\libg.a(lib_a-fread.o)
 .glue_7t       0x0200683c        0x0 c:/nds/devkitarm/bin/../lib/gcc/arm-eabi/4.3.0/../../../../arm-eabi/lib/thumb\libg.a(lib_a-freer.o)
 .glue_7t       0x0200683c        0x0 c:/nds/devkitarm/bin/../lib/gcc/arm-eabi/4.3.0/../../../../arm-eabi/lib/thumb\libg.a(lib_a-fvwrite.o)
 .glue_7t       0x0200683c        0x0 c:/nds/devkitarm/bin/../lib/gcc/arm-eabi/4.3.0/../../../../arm-eabi/lib/thumb\libg.a(lib_a-fwalk.o)
 .glue_7t       0x0200683c        0x0 c:/nds/devkitarm/bin/../lib/gcc/arm-eabi/4.3.0/../../../../arm-eabi/lib/thumb\libg.a(lib_a-iswspace.o)
 .glue_7t       0x0200683c        0x0 c:/nds/devkitarm/bin/../lib/gcc/arm-eabi/4.3.0/../../../../arm-eabi/lib/thumb\libg.a(lib_a-jp2uc.o)
 .glue_7t       0x0200683c        0x0 c:/nds/devkitarm/bin/../lib/gcc/arm-eabi/4.3.0/../../../../arm-eabi/lib/thumb\libg.a(lib_a-locale.o)
 .glue_7t       0x0200683c        0x0 c:/nds/devkitarm/bin/../lib/gcc/arm-eabi/4.3.0/../../../../arm-eabi/lib/thumb\libg.a(lib_a-makebuf.o)
 .glue_7t       0x0200683c        0x0 c:/nds/devkitarm/bin/../lib/gcc/arm-eabi/4.3.0/../../../../arm-eabi/lib/thumb\libg.a(lib_a-malloc.o)
 .glue_7t       0x0200683c        0x0 c:/nds/devkitarm/bin/../lib/gcc/arm-eabi/4.3.0/../../../../arm-eabi/lib/thumb\libg.a(lib_a-mallocr.o)
 .glue_7t       0x0200683c        0x0 c:/nds/devkitarm/bin/../lib/gcc/arm-eabi/4.3.0/../../../../arm-eabi/lib/thumb\libg.a(lib_a-mbrtowc.o)
 .glue_7t       0x0200683c        0x0 c:/nds/devkitarm/bin/../lib/gcc/arm-eabi/4.3.0/../../../../arm-eabi/lib/thumb\libg.a(lib_a-mbtowc_r.o)
 .glue_7t       0x0200683c        0x0 c:/nds/devkitarm/bin/../lib/gcc/arm-eabi/4.3.0/../../../../arm-eabi/lib/thumb\libg.a(lib_a-memchr.o)
 .glue_7t       0x0200683c        0x0 c:/nds/devkitarm/bin/../lib/gcc/arm-eabi/4.3.0/../../../../arm-eabi/lib/thumb\libg.a(lib_a-memset.o)
 .glue_7t       0x0200683c        0x0 c:/nds/devkitarm/bin/../lib/gcc/arm-eabi/4.3.0/../../../../arm-eabi/lib/thumb\libg.a(lib_a-mlock.o)
 .glue_7t       0x0200683c        0x0 c:/nds/devkitarm/bin/../lib/gcc/arm-eabi/4.3.0/../../../../arm-eabi/lib/thumb\libg.a(lib_a-reallocr.o)
 .glue_7t       0x0200683c        0x0 c:/nds/devkitarm/bin/../lib/gcc/arm-eabi/4.3.0/../../../../arm-eabi/lib/thumb\libg.a(lib_a-refill.o)
 .glue_7t       0x0200683c        0x0 c:/nds/devkitarm/bin/../lib/gcc/arm-eabi/4.3.0/../../../../arm-eabi/lib/thumb\libg.a(lib_a-sccl.o)
 .glue_7t       0x0200683c        0x0 c:/nds/devkitarm/bin/../lib/gcc/arm-eabi/4.3.0/../../../../arm-eabi/lib/thumb\libg.a(lib_a-stdio.o)
 .glue_7t       0x0200683c        0x0 c:/nds/devkitarm/bin/../lib/gcc/arm-eabi/4.3.0/../../../../arm-eabi/lib/thumb\libg.a(lib_a-strcmp.o)
 .glue_7t       0x0200683c        0x0 c:/nds/devkitarm/bin/../lib/gcc/arm-eabi/4.3.0/../../../../arm-eabi/lib/thumb\libg.a(lib_a-strcpy.o)
 .glue_7t       0x0200683c        0x0 c:/nds/devkitarm/bin/../lib/gcc/arm-eabi/4.3.0/../../../../arm-eabi/lib/thumb\libg.a(lib_a-strtol.o)
 .glue_7t       0x0200683c        0x0 c:/nds/devkitarm/bin/../lib/gcc/arm-eabi/4.3.0/../../../../arm-eabi/lib/thumb\libg.a(lib_a-strtoul.o)
 .glue_7t       0x0200683c        0x0 c:/nds/devkitarm/bin/../lib/gcc/arm-eabi/4.3.0/../../../../arm-eabi/lib/thumb\libg.a(lib_a-ungetc.o)
 .glue_7t       0x0200683c        0x0 c:/nds/devkitarm/bin/../lib/gcc/arm-eabi/4.3.0/../../../../arm-eabi/lib/thumb\libg.a(lib_a-fclose.o)
 .glue_7t       0x0200683c        0x0 c:/nds/devkitarm/bin/../lib/gcc/arm-eabi/4.3.0/../../../../arm-eabi/lib/thumb\libsysbase.a(iosupport.o)
 .glue_7t       0x0200683c        0x0 c:/nds/devkitarm/bin/../lib/gcc/arm-eabi/4.3.0/../../../../arm-eabi/lib/thumb\libsysbase.a(close.o)
 .glue_7t       0x0200683c        0x0 c:/nds/devkitarm/bin/../lib/gcc/arm-eabi/4.3.0/../../../../arm-eabi/lib/thumb\libsysbase.a(fstat.o)
 .glue_7t       0x0200683c        0x0 c:/nds/devkitarm/bin/../lib/gcc/arm-eabi/4.3.0/../../../../arm-eabi/lib/thumb\libsysbase.a(isatty.o)
 .glue_7t       0x0200683c        0x0 c:/nds/devkitarm/bin/../lib/gcc/arm-eabi/4.3.0/../../../../arm-eabi/lib/thumb\libsysbase.a(lseek.o)
 .glue_7t       0x0200683c        0x0 c:/nds/devkitarm/bin/../lib/gcc/arm-eabi/4.3.0/../../../../arm-eabi/lib/thumb\libsysbase.a(read.o)
 .glue_7t       0x0200683c        0x0 c:/nds/devkitarm/bin/../lib/gcc/arm-eabi/4.3.0/../../../../arm-eabi/lib/thumb\libsysbase.a(sbrk.o)
 .glue_7t       0x0200683c        0x0 c:/nds/devkitarm/bin/../lib/gcc/arm-eabi/4.3.0/../../../../arm-eabi/lib/thumb\libsysbase.a(stat.o)
 .glue_7t       0x0200683c        0x0 c:/nds/devkitarm/bin/../lib/gcc/arm-eabi/4.3.0/../../../../arm-eabi/lib/thumb\libsysbase.a(times.o)
 .glue_7t       0x0200683c        0x0 c:/nds/devkitarm/bin/../lib/gcc/arm-eabi/4.3.0/../../../../arm-eabi/lib/thumb\libsysbase.a(write.o)
 .glue_7t       0x0200683c        0x0 c:/nds/devkitarm/bin/../lib/gcc/arm-eabi/4.3.0/../../../../arm-eabi/lib/thumb\libsysbase.a(malloc_vars.o)
 .glue_7t       0x0200683c        0x0 c:/nds/devkitarm/bin/../lib/gcc/arm-eabi/4.3.0/../../../../arm-eabi/lib/thumb\libsysbase.a(build_argv.o)
 .glue_7t       0x0200683c        0x0 c:/nds/devkitarm/bin/../lib/gcc/arm-eabi/4.3.0/thumb\libgcc.a(_udivsi3.o)
 .glue_7t       0x0200683c        0x0 c:/nds/devkitarm/bin/../lib/gcc/arm-eabi/4.3.0/thumb\libgcc.a(_dvmd_tls.o)
 .glue_7t       0x0200683c        0x0 c:/nds/devkitarm/bin/../lib/gcc/arm-eabi/4.3.0/../../../../arm-eabi/lib/thumb\libg.a(lib_a-errno.o)
 .glue_7t       0x0200683c        0x0 c:/nds/devkitarm/bin/../lib/gcc/arm-eabi/4.3.0/../../../../arm-eabi/lib/thumb\libg.a(lib_a-strncmp.o)
 .glue_7t       0x0200683c        0x0 c:/nds/devkitarm/bin/../lib/gcc/arm-eabi/4.3.0/thumb/crtend.o
 .glue_7t       0x0200683c        0x0 c:/nds/devkitarm/bin/../lib/gcc/arm-eabi/4.3.0/thumb/crtn.o
                0x0200683c                . = ALIGN (0x4)

.vfp11_veneer   0x00000000        0x0
 .vfp11_veneer  0x00000000        0x0 c:/nds/devkitarm/bin/../lib/gcc/arm-eabi/4.3.0/../../../../arm-eabi/lib/thumb/ds_arm9_crt0.o
 .vfp11_veneer  0x00000000        0x0 c:/nds/devkitarm/bin/../lib/gcc/arm-eabi/4.3.0/thumb/crti.o
 .vfp11_veneer  0x00000000        0x0 c:/nds/devkitarm/bin/../lib/gcc/arm-eabi/4.3.0/thumb/crtbegin.o
 .vfp11_veneer  0x00000000        0x0 main.o
 .vfp11_veneer  0x00000000        0x0 reboot.o
 .vfp11_veneer  0x00000000        0x0 spi_driver.o
 .vfp11_veneer  0x00000000        0x0 uart.o
 .vfp11_veneer  0x00000000        0x0 c:/nds/libnds/lib\libnds9.a(console.o)
 .vfp11_veneer  0x00000000        0x0 c:/nds/libnds/lib\libnds9.a(initSystem.o)
 .vfp11_veneer  0x00000000        0x0 c:/nds/libnds/lib\libnds9.a(keys.o)
 .vfp11_veneer  0x00000000        0x0 c:/nds/libnds/lib\libnds9.a(touch.o)
 .vfp11_veneer  0x00000000        0x0 c:/nds/libnds/lib\libnds9.a(video.o)
 .vfp11_veneer  0x00000000        0x0 c:/nds/libnds/lib\libnds9.a(interrupts.o)
 .vfp11_veneer  0x00000000        0x0 c:/nds/libnds/lib\libnds9.a(biosCalls.o)
 .vfp11_veneer  0x00000000        0x0 c:/nds/libnds/lib\libnds9.a(interruptDispatcher.o)
 .vfp11_veneer  0x00000000        0x0 c:/nds/libnds/lib\libnds9.a(default_font.o)
 .vfp11_veneer  0x00000000        0x0 c:/nds/devkitarm/bin/../lib/gcc/arm-eabi/4.3.0/../../../../arm-eabi/lib/thumb\libg.a(lib_a-impure.o)
 .vfp11_veneer  0x00000000        0x0 c:/nds/devkitarm/bin/../lib/gcc/arm-eabi/4.3.0/../../../../arm-eabi/lib/thumb\libg.a(lib_a-init.o)
 .vfp11_veneer  0x00000000        0x0 c:/nds/devkitarm/bin/../lib/gcc/arm-eabi/4.3.0/../../../../arm-eabi/lib/thumb\libg.a(lib_a-iprintf.o)
 .vfp11_veneer  0x00000000        0x0 c:/nds/devkitarm/bin/../lib/gcc/arm-eabi/4.3.0/../../../../arm-eabi/lib/thumb\libg.a(lib_a-memcpy.o)
 .vfp11_veneer  0x00000000        0x0 c:/nds/devkitarm/bin/../lib/gcc/arm-eabi/4.3.0/../../../../arm-eabi/lib/thumb\libg.a(lib_a-memmove.o)
 .vfp11_veneer  0x00000000        0x0 c:/nds/devkitarm/bin/../lib/gcc/arm-eabi/4.3.0/../../../../arm-eabi/lib/thumb\libg.a(lib_a-setvbuf.o)
 .vfp11_veneer  0x00000000        0x0 c:/nds/devkitarm/bin/../lib/gcc/arm-eabi/4.3.0/../../../../arm-eabi/lib/thumb\libg.a(lib_a-siscanf.o)
 .vfp11_veneer  0x00000000        0x0 c:/nds/devkitarm/bin/../lib/gcc/arm-eabi/4.3.0/../../../../arm-eabi/lib/thumb\libg.a(lib_a-strlen.o)
 .vfp11_veneer  0x00000000        0x0 c:/nds/devkitarm/bin/../lib/gcc/arm-eabi/4.3.0/../../../../arm-eabi/lib/thumb\libg.a(lib_a-sysstat.o)
 .vfp11_veneer  0x00000000        0x0 c:/nds/devkitarm/bin/../lib/gcc/arm-eabi/4.3.0/../../../../arm-eabi/lib/thumb\libg.a(lib_a-vfiprintf.o)
 .vfp11_veneer  0x00000000        0x0 c:/nds/devkitarm/bin/../lib/gcc/arm-eabi/4.3.0/../../../../arm-eabi/lib/thumb\libg.a(lib_a-vfiscanf.o)
 .vfp11_veneer  0x00000000        0x0 c:/nds/devkitarm/bin/../lib/gcc/arm-eabi/4.3.0/../../../../arm-eabi/lib/thumb\libg.a(lib_a-wcrtomb.o)
 .vfp11_veneer  0x00000000        0x0 c:/nds/devkitarm/bin/../lib/gcc/arm-eabi/4.3.0/../../../../arm-eabi/lib/thumb\libg.a(lib_a-wcsrtombs.o)
 .vfp11_veneer  0x00000000        0x0 c:/nds/devkitarm/bin/../lib/gcc/arm-eabi/4.3.0/../../../../arm-eabi/lib/thumb\libg.a(lib_a-wctomb_r.o)
 .vfp11_veneer  0x00000000        0x0 c:/nds/devkitarm/bin/../lib/gcc/arm-eabi/4.3.0/../../../../arm-eabi/lib/thumb\libg.a(lib_a-wsetup.o)
 .vfp11_veneer  0x00000000        0x0 c:/nds/devkitarm/bin/../lib/gcc/arm-eabi/4.3.0/../../../../arm-eabi/lib/thumb\libg.a(lib_a-ctype_.o)
 .vfp11_veneer  0x00000000        0x0 c:/nds/devkitarm/bin/../lib/gcc/arm-eabi/4.3.0/../../../../arm-eabi/lib/thumb\libg.a(lib_a-fflush.o)
 .vfp11_veneer  0x00000000        0x0 c:/nds/devkitarm/bin/../lib/gcc/arm-eabi/4.3.0/../../../../arm-eabi/lib/thumb\libg.a(lib_a-findfp.o)
 .vfp11_veneer  0x00000000        0x0 c:/nds/devkitarm/bin/../lib/gcc/arm-eabi/4.3.0/../../../../arm-eabi/lib/thumb\libg.a(lib_a-fread.o)
 .vfp11_veneer  0x00000000        0x0 c:/nds/devkitarm/bin/../lib/gcc/arm-eabi/4.3.0/../../../../arm-eabi/lib/thumb\libg.a(lib_a-freer.o)
 .vfp11_veneer  0x00000000        0x0 c:/nds/devkitarm/bin/../lib/gcc/arm-eabi/4.3.0/../../../../arm-eabi/lib/thumb\libg.a(lib_a-fvwrite.o)
 .vfp11_veneer  0x00000000        0x0 c:/nds/devkitarm/bin/../lib/gcc/arm-eabi/4.3.0/../../../../arm-eabi/lib/thumb\libg.a(lib_a-fwalk.o)
 .vfp11_veneer  0x00000000        0x0 c:/nds/devkitarm/bin/../lib/gcc/arm-eabi/4.3.0/../../../../arm-eabi/lib/thumb\libg.a(lib_a-iswspace.o)
 .vfp11_veneer  0x00000000        0x0 c:/nds/devkitarm/bin/../lib/gcc/arm-eabi/4.3.0/../../../../arm-eabi/lib/thumb\libg.a(lib_a-jp2uc.o)
 .vfp11_veneer  0x00000000        0x0 c:/nds/devkitarm/bin/../lib/gcc/arm-eabi/4.3.0/../../../../arm-eabi/lib/thumb\libg.a(lib_a-locale.o)
 .vfp11_veneer  0x00000000        0x0 c:/nds/devkitarm/bin/../lib/gcc/arm-eabi/4.3.0/../../../../arm-eabi/lib/thumb\libg.a(lib_a-makebuf.o)
 .vfp11_veneer  0x00000000        0x0 c:/nds/devkitarm/bin/../lib/gcc/arm-eabi/4.3.0/../../../../arm-eabi/lib/thumb\libg.a(lib_a-malloc.o)
 .vfp11_veneer  0x00000000        0x0 c:/nds/devkitarm/bin/../lib/gcc/arm-eabi/4.3.0/../../../../arm-eabi/lib/thumb\libg.a(lib_a-mallocr.o)
 .vfp11_veneer  0x00000000        0x0 c:/nds/devkitarm/bin/../lib/gcc/arm-eabi/4.3.0/../../../../arm-eabi/lib/thumb\libg.a(lib_a-mbrtowc.o)
 .vfp11_veneer  0x00000000        0x0 c:/nds/devkitarm/bin/../lib/gcc/arm-eabi/4.3.0/../../../../arm-eabi/lib/thumb\libg.a(lib_a-mbtowc_r.o)
 .vfp11_veneer  0x00000000        0x0 c:/nds/devkitarm/bin/../lib/gcc/arm-eabi/4.3.0/../../../../arm-eabi/lib/thumb\libg.a(lib_a-memchr.o)
 .vfp11_veneer  0x00000000        0x0 c:/nds/devkitarm/bin/../lib/gcc/arm-eabi/4.3.0/../../../../arm-eabi/lib/thumb\libg.a(lib_a-memset.o)
 .vfp11_veneer  0x00000000        0x0 c:/nds/devkitarm/bin/../lib/gcc/arm-eabi/4.3.0/../../../../arm-eabi/lib/thumb\libg.a(lib_a-mlock.o)
 .vfp11_veneer  0x00000000        0x0 c:/nds/devkitarm/bin/../lib/gcc/arm-eabi/4.3.0/../../../../arm-eabi/lib/thumb\libg.a(lib_a-reallocr.o)
 .vfp11_veneer  0x00000000        0x0 c:/nds/devkitarm/bin/../lib/gcc/arm-eabi/4.3.0/../../../../arm-eabi/lib/thumb\libg.a(lib_a-refill.o)
 .vfp11_veneer  0x00000000        0x0 c:/nds/devkitarm/bin/../lib/gcc/arm-eabi/4.3.0/../../../../arm-eabi/lib/thumb\libg.a(lib_a-sccl.o)
 .vfp11_veneer  0x00000000        0x0 c:/nds/devkitarm/bin/../lib/gcc/arm-eabi/4.3.0/../../../../arm-eabi/lib/thumb\libg.a(lib_a-stdio.o)
 .vfp11_veneer  0x00000000        0x0 c:/nds/devkitarm/bin/../lib/gcc/arm-eabi/4.3.0/../../../../arm-eabi/lib/thumb\libg.a(lib_a-strcmp.o)
 .vfp11_veneer  0x00000000        0x0 c:/nds/devkitarm/bin/../lib/gcc/arm-eabi/4.3.0/../../../../arm-eabi/lib/thumb\libg.a(lib_a-strcpy.o)
 .vfp11_veneer  0x00000000        0x0 c:/nds/devkitarm/bin/../lib/gcc/arm-eabi/4.3.0/../../../../arm-eabi/lib/thumb\libg.a(lib_a-strtol.o)
 .vfp11_veneer  0x00000000        0x0 c:/nds/devkitarm/bin/../lib/gcc/arm-eabi/4.3.0/../../../../arm-eabi/lib/thumb\libg.a(lib_a-strtoul.o)
 .vfp11_veneer  0x00000000        0x0 c:/nds/devkitarm/bin/../lib/gcc/arm-eabi/4.3.0/../../../../arm-eabi/lib/thumb\libg.a(lib_a-ungetc.o)
 .vfp11_veneer  0x00000000        0x0 c:/nds/devkitarm/bin/../lib/gcc/arm-eabi/4.3.0/../../../../arm-eabi/lib/thumb\libg.a(lib_a-fclose.o)
 .vfp11_veneer  0x00000000        0x0 c:/nds/devkitarm/bin/../lib/gcc/arm-eabi/4.3.0/../../../../arm-eabi/lib/thumb\libsysbase.a(iosupport.o)
 .vfp11_veneer  0x00000000        0x0 c:/nds/devkitarm/bin/../lib/gcc/arm-eabi/4.3.0/../../../../arm-eabi/lib/thumb\libsysbase.a(close.o)
 .vfp11_veneer  0x00000000        0x0 c:/nds/devkitarm/bin/../lib/gcc/arm-eabi/4.3.0/../../../../arm-eabi/lib/thumb\libsysbase.a(fstat.o)
 .vfp11_veneer  0x00000000        0x0 c:/nds/devkitarm/bin/../lib/gcc/arm-eabi/4.3.0/../../../../arm-eabi/lib/thumb\libsysbase.a(isatty.o)
 .vfp11_veneer  0x00000000        0x0 c:/nds/devkitarm/bin/../lib/gcc/arm-eabi/4.3.0/../../../../arm-eabi/lib/thumb\libsysbase.a(lseek.o)
 .vfp11_veneer  0x00000000        0x0 c:/nds/devkitarm/bin/../lib/gcc/arm-eabi/4.3.0/../../../../arm-eabi/lib/thumb\libsysbase.a(read.o)
 .vfp11_veneer  0x00000000        0x0 c:/nds/devkitarm/bin/../lib/gcc/arm-eabi/4.3.0/../../../../arm-eabi/lib/thumb\libsysbase.a(sbrk.o)
 .vfp11_veneer  0x00000000        0x0 c:/nds/devkitarm/bin/../lib/gcc/arm-eabi/4.3.0/../../../../arm-eabi/lib/thumb\libsysbase.a(stat.o)
 .vfp11_veneer  0x00000000        0x0 c:/nds/devkitarm/bin/../lib/gcc/arm-eabi/4.3.0/../../../../arm-eabi/lib/thumb\libsysbase.a(times.o)
 .vfp11_veneer  0x00000000        0x0 c:/nds/devkitarm/bin/../lib/gcc/arm-eabi/4.3.0/../../../../arm-eabi/lib/thumb\libsysbase.a(write.o)
 .vfp11_veneer  0x00000000        0x0 c:/nds/devkitarm/bin/../lib/gcc/arm-eabi/4.3.0/../../../../arm-eabi/lib/thumb\libsysbase.a(malloc_vars.o)
 .vfp11_veneer  0x00000000        0x0 c:/nds/devkitarm/bin/../lib/gcc/arm-eabi/4.3.0/../../../../arm-eabi/lib/thumb\libsysbase.a(build_argv.o)
 .vfp11_veneer  0x00000000        0x0 c:/nds/devkitarm/bin/../lib/gcc/arm-eabi/4.3.0/thumb\libgcc.a(_udivsi3.o)
 .vfp11_veneer  0x00000000        0x0 c:/nds/devkitarm/bin/../lib/gcc/arm-eabi/4.3.0/thumb\libgcc.a(_dvmd_tls.o)
 .vfp11_veneer  0x00000000        0x0 c:/nds/devkitarm/bin/../lib/gcc/arm-eabi/4.3.0/../../../../arm-eabi/lib/thumb\libg.a(lib_a-errno.o)
 .vfp11_veneer  0x00000000        0x0 c:/nds/devkitarm/bin/../lib/gcc/arm-eabi/4.3.0/../../../../arm-eabi/lib/thumb\libg.a(lib_a-strncmp.o)
 .vfp11_veneer  0x00000000        0x0 c:/nds/devkitarm/bin/../lib/gcc/arm-eabi/4.3.0/thumb/crtend.o
 .vfp11_veneer  0x00000000        0x0 c:/nds/devkitarm/bin/../lib/gcc/arm-eabi/4.3.0/thumb/crtn.o

.v4_bx          0x00000000        0x0
 .v4_bx         0x00000000        0x0 c:/nds/devkitarm/bin/../lib/gcc/arm-eabi/4.3.0/../../../../arm-eabi/lib/thumb/ds_arm9_crt0.o
 .v4_bx         0x00000000        0x0 c:/nds/devkitarm/bin/../lib/gcc/arm-eabi/4.3.0/thumb/crti.o
 .v4_bx         0x00000000        0x0 c:/nds/devkitarm/bin/../lib/gcc/arm-eabi/4.3.0/thumb/crtbegin.o
 .v4_bx         0x00000000        0x0 main.o
 .v4_bx         0x00000000        0x0 reboot.o
 .v4_bx         0x00000000        0x0 spi_driver.o
 .v4_bx         0x00000000        0x0 uart.o
 .v4_bx         0x00000000        0x0 c:/nds/libnds/lib\libnds9.a(console.o)
 .v4_bx         0x00000000        0x0 c:/nds/libnds/lib\libnds9.a(initSystem.o)
 .v4_bx         0x00000000        0x0 c:/nds/libnds/lib\libnds9.a(keys.o)
 .v4_bx         0x00000000        0x0 c:/nds/libnds/lib\libnds9.a(touch.o)
 .v4_bx         0x00000000        0x0 c:/nds/libnds/lib\libnds9.a(video.o)
 .v4_bx         0x00000000        0x0 c:/nds/libnds/lib\libnds9.a(interrupts.o)
 .v4_bx         0x00000000        0x0 c:/nds/libnds/lib\libnds9.a(biosCalls.o)
 .v4_bx         0x00000000        0x0 c:/nds/libnds/lib\libnds9.a(interruptDispatcher.o)
 .v4_bx         0x00000000        0x0 c:/nds/libnds/lib\libnds9.a(default_font.o)
 .v4_bx         0x00000000        0x0 c:/nds/devkitarm/bin/../lib/gcc/arm-eabi/4.3.0/../../../../arm-eabi/lib/thumb\libg.a(lib_a-impure.o)
 .v4_bx         0x00000000        0x0 c:/nds/devkitarm/bin/../lib/gcc/arm-eabi/4.3.0/../../../../arm-eabi/lib/thumb\libg.a(lib_a-init.o)
 .v4_bx         0x00000000        0x0 c:/nds/devkitarm/bin/../lib/gcc/arm-eabi/4.3.0/../../../../arm-eabi/lib/thumb\libg.a(lib_a-iprintf.o)
 .v4_bx         0x00000000        0x0 c:/nds/devkitarm/bin/../lib/gcc/arm-eabi/4.3.0/../../../../arm-eabi/lib/thumb\libg.a(lib_a-memcpy.o)
 .v4_bx         0x00000000        0x0 c:/nds/devkitarm/bin/../lib/gcc/arm-eabi/4.3.0/../../../../arm-eabi/lib/thumb\libg.a(lib_a-memmove.o)
 .v4_bx         0x00000000        0x0 c:/nds/devkitarm/bin/../lib/gcc/arm-eabi/4.3.0/../../../../arm-eabi/lib/thumb\libg.a(lib_a-setvbuf.o)
 .v4_bx         0x00000000        0x0 c:/nds/devkitarm/bin/../lib/gcc/arm-eabi/4.3.0/../../../../arm-eabi/lib/thumb\libg.a(lib_a-siscanf.o)
 .v4_bx         0x00000000        0x0 c:/nds/devkitarm/bin/../lib/gcc/arm-eabi/4.3.0/../../../../arm-eabi/lib/thumb\libg.a(lib_a-strlen.o)
 .v4_bx         0x00000000        0x0 c:/nds/devkitarm/bin/../lib/gcc/arm-eabi/4.3.0/../../../../arm-eabi/lib/thumb\libg.a(lib_a-sysstat.o)
 .v4_bx         0x00000000        0x0 c:/nds/devkitarm/bin/../lib/gcc/arm-eabi/4.3.0/../../../../arm-eabi/lib/thumb\libg.a(lib_a-vfiprintf.o)
 .v4_bx         0x00000000        0x0 c:/nds/devkitarm/bin/../lib/gcc/arm-eabi/4.3.0/../../../../arm-eabi/lib/thumb\libg.a(lib_a-vfiscanf.o)
 .v4_bx         0x00000000        0x0 c:/nds/devkitarm/bin/../lib/gcc/arm-eabi/4.3.0/../../../../arm-eabi/lib/thumb\libg.a(lib_a-wcrtomb.o)
 .v4_bx         0x00000000        0x0 c:/nds/devkitarm/bin/../lib/gcc/arm-eabi/4.3.0/../../../../arm-eabi/lib/thumb\libg.a(lib_a-wcsrtombs.o)
 .v4_bx         0x00000000        0x0 c:/nds/devkitarm/bin/../lib/gcc/arm-eabi/4.3.0/../../../../arm-eabi/lib/thumb\libg.a(lib_a-wctomb_r.o)
 .v4_bx         0x00000000        0x0 c:/nds/devkitarm/bin/../lib/gcc/arm-eabi/4.3.0/../../../../arm-eabi/lib/thumb\libg.a(lib_a-wsetup.o)
 .v4_bx         0x00000000        0x0 c:/nds/devkitarm/bin/../lib/gcc/arm-eabi/4.3.0/../../../../arm-eabi/lib/thumb\libg.a(lib_a-ctype_.o)
 .v4_bx         0x00000000        0x0 c:/nds/devkitarm/bin/../lib/gcc/arm-eabi/4.3.0/../../../../arm-eabi/lib/thumb\libg.a(lib_a-fflush.o)
 .v4_bx         0x00000000        0x0 c:/nds/devkitarm/bin/../lib/gcc/arm-eabi/4.3.0/../../../../arm-eabi/lib/thumb\libg.a(lib_a-findfp.o)
 .v4_bx         0x00000000        0x0 c:/nds/devkitarm/bin/../lib/gcc/arm-eabi/4.3.0/../../../../arm-eabi/lib/thumb\libg.a(lib_a-fread.o)
 .v4_bx         0x00000000        0x0 c:/nds/devkitarm/bin/../lib/gcc/arm-eabi/4.3.0/../../../../arm-eabi/lib/thumb\libg.a(lib_a-freer.o)
 .v4_bx         0x00000000        0x0 c:/nds/devkitarm/bin/../lib/gcc/arm-eabi/4.3.0/../../../../arm-eabi/lib/thumb\libg.a(lib_a-fvwrite.o)
 .v4_bx         0x00000000        0x0 c:/nds/devkitarm/bin/../lib/gcc/arm-eabi/4.3.0/../../../../arm-eabi/lib/thumb\libg.a(lib_a-fwalk.o)
 .v4_bx         0x00000000        0x0 c:/nds/devkitarm/bin/../lib/gcc/arm-eabi/4.3.0/../../../../arm-eabi/lib/thumb\libg.a(lib_a-iswspace.o)
 .v4_bx         0x00000000        0x0 c:/nds/devkitarm/bin/../lib/gcc/arm-eabi/4.3.0/../../../../arm-eabi/lib/thumb\libg.a(lib_a-jp2uc.o)
 .v4_bx         0x00000000        0x0 c:/nds/devkitarm/bin/../lib/gcc/arm-eabi/4.3.0/../../../../arm-eabi/lib/thumb\libg.a(lib_a-locale.o)
 .v4_bx         0x00000000        0x0 c:/nds/devkitarm/bin/../lib/gcc/arm-eabi/4.3.0/../../../../arm-eabi/lib/thumb\libg.a(lib_a-makebuf.o)
 .v4_bx         0x00000000        0x0 c:/nds/devkitarm/bin/../lib/gcc/arm-eabi/4.3.0/../../../../arm-eabi/lib/thumb\libg.a(lib_a-malloc.o)
 .v4_bx         0x00000000        0x0 c:/nds/devkitarm/bin/../lib/gcc/arm-eabi/4.3.0/../../../../arm-eabi/lib/thumb\libg.a(lib_a-mallocr.o)
 .v4_bx         0x00000000        0x0 c:/nds/devkitarm/bin/../lib/gcc/arm-eabi/4.3.0/../../../../arm-eabi/lib/thumb\libg.a(lib_a-mbrtowc.o)
 .v4_bx         0x00000000        0x0 c:/nds/devkitarm/bin/../lib/gcc/arm-eabi/4.3.0/../../../../arm-eabi/lib/thumb\libg.a(lib_a-mbtowc_r.o)
 .v4_bx         0x00000000        0x0 c:/nds/devkitarm/bin/../lib/gcc/arm-eabi/4.3.0/../../../../arm-eabi/lib/thumb\libg.a(lib_a-memchr.o)
 .v4_bx         0x00000000        0x0 c:/nds/devkitarm/bin/../lib/gcc/arm-eabi/4.3.0/../../../../arm-eabi/lib/thumb\libg.a(lib_a-memset.o)
 .v4_bx         0x00000000        0x0 c:/nds/devkitarm/bin/../lib/gcc/arm-eabi/4.3.0/../../../../arm-eabi/lib/thumb\libg.a(lib_a-mlock.o)
 .v4_bx         0x00000000        0x0 c:/nds/devkitarm/bin/../lib/gcc/arm-eabi/4.3.0/../../../../arm-eabi/lib/thumb\libg.a(lib_a-reallocr.o)
 .v4_bx         0x00000000        0x0 c:/nds/devkitarm/bin/../lib/gcc/arm-eabi/4.3.0/../../../../arm-eabi/lib/thumb\libg.a(lib_a-refill.o)
 .v4_bx         0x00000000        0x0 c:/nds/devkitarm/bin/../lib/gcc/arm-eabi/4.3.0/../../../../arm-eabi/lib/thumb\libg.a(lib_a-sccl.o)
 .v4_bx         0x00000000        0x0 c:/nds/devkitarm/bin/../lib/gcc/arm-eabi/4.3.0/../../../../arm-eabi/lib/thumb\libg.a(lib_a-stdio.o)
 .v4_bx         0x00000000        0x0 c:/nds/devkitarm/bin/../lib/gcc/arm-eabi/4.3.0/../../../../arm-eabi/lib/thumb\libg.a(lib_a-strcmp.o)
 .v4_bx         0x00000000        0x0 c:/nds/devkitarm/bin/../lib/gcc/arm-eabi/4.3.0/../../../../arm-eabi/lib/thumb\libg.a(lib_a-strcpy.o)
 .v4_bx         0x00000000        0x0 c:/nds/devkitarm/bin/../lib/gcc/arm-eabi/4.3.0/../../../../arm-eabi/lib/thumb\libg.a(lib_a-strtol.o)
 .v4_bx         0x00000000        0x0 c:/nds/devkitarm/bin/../lib/gcc/arm-eabi/4.3.0/../../../../arm-eabi/lib/thumb\libg.a(lib_a-strtoul.o)
 .v4_bx         0x00000000        0x0 c:/nds/devkitarm/bin/../lib/gcc/arm-eabi/4.3.0/../../../../arm-eabi/lib/thumb\libg.a(lib_a-ungetc.o)
 .v4_bx         0x00000000        0x0 c:/nds/devkitarm/bin/../lib/gcc/arm-eabi/4.3.0/../../../../arm-eabi/lib/thumb\libg.a(lib_a-fclose.o)
 .v4_bx         0x00000000        0x0 c:/nds/devkitarm/bin/../lib/gcc/arm-eabi/4.3.0/../../../../arm-eabi/lib/thumb\libsysbase.a(iosupport.o)
 .v4_bx         0x00000000        0x0 c:/nds/devkitarm/bin/../lib/gcc/arm-eabi/4.3.0/../../../../arm-eabi/lib/thumb\libsysbase.a(close.o)
 .v4_bx         0x00000000        0x0 c:/nds/devkitarm/bin/../lib/gcc/arm-eabi/4.3.0/../../../../arm-eabi/lib/thumb\libsysbase.a(fstat.o)
 .v4_bx         0x00000000        0x0 c:/nds/devkitarm/bin/../lib/gcc/arm-eabi/4.3.0/../../../../arm-eabi/lib/thumb\libsysbase.a(isatty.o)
 .v4_bx         0x00000000        0x0 c:/nds/devkitarm/bin/../lib/gcc/arm-eabi/4.3.0/../../../../arm-eabi/lib/thumb\libsysbase.a(lseek.o)
 .v4_bx         0x00000000        0x0 c:/nds/devkitarm/bin/../lib/gcc/arm-eabi/4.3.0/../../../../arm-eabi/lib/thumb\libsysbase.a(read.o)
 .v4_bx         0x00000000        0x0 c:/nds/devkitarm/bin/../lib/gcc/arm-eabi/4.3.0/../../../../arm-eabi/lib/thumb\libsysbase.a(sbrk.o)
 .v4_bx         0x00000000        0x0 c:/nds/devkitarm/bin/../lib/gcc/arm-eabi/4.3.0/../../../../arm-eabi/lib/thumb\libsysbase.a(stat.o)
 .v4_bx         0x00000000        0x0 c:/nds/devkitarm/bin/../lib/gcc/arm-eabi/4.3.0/../../../../arm-eabi/lib/thumb\libsysbase.a(times.o)
 .v4_bx         0x00000000        0x0 c:/nds/devkitarm/bin/../lib/gcc/arm-eabi/4.3.0/../../../../arm-eabi/lib/thumb\libsysbase.a(write.o)
 .v4_bx         0x00000000        0x0 c:/nds/devkitarm/bin/../lib/gcc/arm-eabi/4.3.0/../../../../arm-eabi/lib/thumb\libsysbase.a(malloc_vars.o)
 .v4_bx         0x00000000        0x0 c:/nds/devkitarm/bin/../lib/gcc/arm-eabi/4.3.0/../../../../arm-eabi/lib/thumb\libsysbase.a(build_argv.o)
 .v4_bx         0x00000000        0x0 c:/nds/devkitarm/bin/../lib/gcc/arm-eabi/4.3.0/thumb\libgcc.a(_udivsi3.o)
 .v4_bx         0x00000000        0x0 c:/nds/devkitarm/bin/../lib/gcc/arm-eabi/4.3.0/thumb\libgcc.a(_dvmd_tls.o)
 .v4_bx         0x00000000        0x0 c:/nds/devkitarm/bin/../lib/gcc/arm-eabi/4.3.0/../../../../arm-eabi/lib/thumb\libg.a(lib_a-errno.o)
 .v4_bx         0x00000000        0x0 c:/nds/devkitarm/bin/../lib/gcc/arm-eabi/4.3.0/../../../../arm-eabi/lib/thumb\libg.a(lib_a-strncmp.o)
 .v4_bx         0x00000000        0x0 c:/nds/devkitarm/bin/../lib/gcc/arm-eabi/4.3.0/thumb/crtend.o
 .v4_bx         0x00000000        0x0 c:/nds/devkitarm/bin/../lib/gcc/arm-eabi/4.3.0/thumb/crtn.o

.fini           0x0200683c        0xc
 *(.fini)
 .fini          0x0200683c        0x4 c:/nds/devkitarm/bin/../lib/gcc/arm-eabi/4.3.0/thumb/crti.o
                0x0200683c                _fini
 .fini          0x02006840        0x8 c:/nds/devkitarm/bin/../lib/gcc/arm-eabi/4.3.0/thumb/crtn.o
                0x02006848                __text_end = .

.rodata         0x02006848     0x6110
 *(.rodata)
 .rodata        0x02006848       0x2c main.o
 .rodata        0x02006874       0x3c uart.o
 .rodata        0x020068b0      0x120 c:/nds/libnds/lib\libnds9.a(console.o)
                0x02006984                dotab_stdout
 .rodata        0x020069d0     0x2004 c:/nds/libnds/lib\libnds9.a(default_font.o)
                0x020089d4                default_font_bin_end
                0x020069d0                default_font_bin_size
                0x020069d4                default_font_bin
 .rodata        0x020089d4        0x4 c:/nds/devkitarm/bin/../lib/gcc/arm-eabi/4.3.0/../../../../arm-eabi/lib/thumb\libg.a(lib_a-impure.o)
                0x020089d4                _global_impure_ptr
 .rodata        0x020089d8      0x18c c:/nds/devkitarm/bin/../lib/gcc/arm-eabi/4.3.0/../../../../arm-eabi/lib/thumb\libg.a(lib_a-vfiprintf.o)
 .rodata        0x02008b64      0x340 c:/nds/devkitarm/bin/../lib/gcc/arm-eabi/4.3.0/../../../../arm-eabi/lib/thumb\libg.a(lib_a-vfiscanf.o)
 .rodata        0x02008ea4      0x101 c:/nds/devkitarm/bin/../lib/gcc/arm-eabi/4.3.0/../../../../arm-eabi/lib/thumb\libg.a(lib_a-ctype_.o)
                0x02008ea4                _ctype_
 *fill*         0x02008fa5        0x3 ff
 .rodata        0x02008fa8     0x34ec c:/nds/devkitarm/bin/../lib/gcc/arm-eabi/4.3.0/../../../../arm-eabi/lib/thumb\libg.a(lib_a-jp2uc.o)
 .rodata        0x0200c494       0xb8 c:/nds/devkitarm/bin/../lib/gcc/arm-eabi/4.3.0/../../../../arm-eabi/lib/thumb\libg.a(lib_a-locale.o)
 .rodata        0x0200c54c       0xa8 c:/nds/devkitarm/bin/../lib/gcc/arm-eabi/4.3.0/../../../../arm-eabi/lib/thumb\libg.a(lib_a-mbtowc_r.o)
 .rodata        0x0200c5f4       0x50 c:/nds/devkitarm/bin/../lib/gcc/arm-eabi/4.3.0/../../../../arm-eabi/lib/thumb\libsysbase.a(iosupport.o)
                0x0200c5f4                dotab_stdnull
 *all.rodata*(*)
 *(.roda)
 *(.rodata.*)
 .rodata.str1.4
                0x0200c644      0x22f main.o
                                0x230 (size before relaxing)
 *fill*         0x0200c873        0x1 ff
 .rodata.str1.4
                0x0200c874        0x3 reboot.o
                                  0x4 (size before relaxing)
 *fill*         0x0200c877        0x1 ff
 .rodata.str1.4
                0x0200c878       0x2c c:/nds/libnds/lib\libnds9.a(console.o)
 .rodata.str1.4
                0x0200c8a4        0x2 c:/nds/devkitarm/bin/../lib/gcc/arm-eabi/4.3.0/../../../../arm-eabi/lib/thumb\libg.a(lib_a-impure.o)
                                  0x4 (size before relaxing)
 *fill*         0x0200c8a6        0x2 ff
 .rodata.str1.4
                0x0200c8a8       0x4a c:/nds/devkitarm/bin/../lib/gcc/arm-eabi/4.3.0/../../../../arm-eabi/lib/thumb\libg.a(lib_a-vfiprintf.o)
                                 0x4c (size before relaxing)
 *fill*         0x0200c8f2        0x2 ff
 .rodata.str1.4
                0x0200c8f4       0x1e c:/nds/devkitarm/bin/../lib/gcc/arm-eabi/4.3.0/../../../../arm-eabi/lib/thumb\libg.a(lib_a-wctomb_r.o)
                                 0x20 (size before relaxing)
 .rodata.str1.4
                0x00000000       0x20 c:/nds/devkitarm/bin/../lib/gcc/arm-eabi/4.3.0/../../../../arm-eabi/lib/thumb\libg.a(lib_a-iswspace.o)
 *fill*         0x0200c912        0x2 ff
 .rodata.str1.4
                0x0200c914       0x3a c:/nds/devkitarm/bin/../lib/gcc/arm-eabi/4.3.0/../../../../arm-eabi/lib/thumb\libg.a(lib_a-locale.o)
                                 0x64 (size before relaxing)
 .rodata.str1.4
                0x00000000        0x4 c:/nds/devkitarm/bin/../lib/gcc/arm-eabi/4.3.0/../../../../arm-eabi/lib/thumb\libg.a(lib_a-mbrtowc.o)
 .rodata.str1.4
                0x00000000       0x20 c:/nds/devkitarm/bin/../lib/gcc/arm-eabi/4.3.0/../../../../arm-eabi/lib/thumb\libg.a(lib_a-mbtowc_r.o)
 *fill*         0x0200c94e        0x2 ff
 .rodata.str1.4
                0x0200c950        0x8 c:/nds/devkitarm/bin/../lib/gcc/arm-eabi/4.3.0/../../../../arm-eabi/lib/thumb\libsysbase.a(iosupport.o)
 *(.gnu.linkonce.r*)
                0x0200c958                . = ALIGN (0x4)

.ARM.extab
 *(.ARM.extab* .gnu.linkonce.armextab.*)
                0x0200c958                __exidx_start = .

.ARM.exidx
 *(.ARM.exidx* .gnu.linkonce.armexidx.*)
                0x0200c958                __exidx_end = .
                0x0200c958                . = ALIGN (0x4)
                0x0200c958                PROVIDE (__preinit_array_start, .)

.preinit_array
 *(.preinit_array)
                0x0200c958                PROVIDE (__preinit_array_end, .)
                0x0200c958                PROVIDE (__init_array_start, .)

.init_array     0x0200c958        0x4
 *(.init_array)
 .init_array    0x0200c958        0x4 c:/nds/devkitarm/bin/../lib/gcc/arm-eabi/4.3.0/thumb/crtbegin.o
                0x0200c95c                PROVIDE (__init_array_end, .)
                0x0200c95c                PROVIDE (__fini_array_start, .)

.fini_array     0x0200c95c        0x4
 *(.fini_array)
 .fini_array    0x0200c95c        0x4 c:/nds/devkitarm/bin/../lib/gcc/arm-eabi/4.3.0/thumb/crtbegin.o
                0x0200c960                PROVIDE (__fini_array_end, .)

.ctors          0x0200c960        0x0
 *crtbegin.o(.ctors)
 *(EXCLUDE_FILE(*crtend.o) .ctors)
 *(SORT(.ctors.*))
 *(.ctors)
                0x0200c960                . = ALIGN (0x4)

.dtors          0x0200c960        0x0
 *crtbegin.o(.dtors)
 *(EXCLUDE_FILE(*crtend.o) .dtors)
 *(SORT(.dtors.*))
 *(.dtors)
                0x0200c960                . = ALIGN (0x4)

.eh_frame       0x0200c960        0x4
 *(.eh_frame)
 .eh_frame      0x0200c960        0x0 c:/nds/devkitarm/bin/../lib/gcc/arm-eabi/4.3.0/thumb/crtbegin.o
 .eh_frame      0x0200c960        0x4 c:/nds/devkitarm/bin/../lib/gcc/arm-eabi/4.3.0/thumb/crtend.o
                0x0200c964                . = ALIGN (0x4)

.gcc_except_table
                0x0200c964        0x0
 *(.gcc_except_table)
                0x0200c964                . = ALIGN (0x4)

.jcr            0x0200c964        0x4
 *(.jcr)
 .jcr           0x0200c964        0x0 c:/nds/devkitarm/bin/../lib/gcc/arm-eabi/4.3.0/thumb/crtbegin.o
 .jcr           0x0200c964        0x4 c:/nds/devkitarm/bin/../lib/gcc/arm-eabi/4.3.0/thumb/crtend.o

.got
 *(.got.plt)
 *(.got)
 *(.rel.got)

.ewram          0x0200c968        0x0
                0x0200c968                __ewram_start = <code 345> (.)
 *(.ewram)
 *ewram.*(.text)
                0x0200c968                . = ALIGN (0x4)

.data           0x0200c968      0x8b8
                0x0200c968                __data_start = <code 345> (.)
 *(.data)
 .data          0x0200c968        0x0 c:/nds/devkitarm/bin/../lib/gcc/arm-eabi/4.3.0/../../../../arm-eabi/lib/thumb/ds_arm9_crt0.o
 .data          0x0200c968        0x0 c:/nds/devkitarm/bin/../lib/gcc/arm-eabi/4.3.0/thumb/crti.o
 .data          0x0200c968        0x4 c:/nds/devkitarm/bin/../lib/gcc/arm-eabi/4.3.0/thumb/crtbegin.o
                0x0200c968                __dso_handle
 .data          0x0200c96c        0x0 main.o
 .data          0x0200c96c        0x0 reboot.o
 .data          0x0200c96c        0x0 spi_driver.o
 .data          0x0200c96c        0x2 uart.o
                0x0200c96d                timer
                0x0200c96c                newlineChar
 .data          0x0200c96e        0x0 c:/nds/libnds/lib\libnds9.a(console.o)
 .data          0x0200c96e        0x0 c:/nds/libnds/lib\libnds9.a(initSystem.o)
 .data          0x0200c96e        0x3 c:/nds/libnds/lib\libnds9.a(keys.o)
 .data          0x0200c971        0x0 c:/nds/libnds/lib\libnds9.a(touch.o)
 .data          0x0200c971        0x0 c:/nds/libnds/lib\libnds9.a(video.o)
 .data          0x0200c971        0x0 c:/nds/libnds/lib\libnds9.a(interrupts.o)
 .data          0x0200c971        0x0 c:/nds/libnds/lib\libnds9.a(biosCalls.o)
 .data          0x0200c971        0x0 c:/nds/libnds/lib\libnds9.a(interruptDispatcher.o)
 .data          0x0200c971        0x0 c:/nds/libnds/lib\libnds9.a(default_font.o)
 *fill*         0x0200c971        0x7 ff
 .data          0x0200c978      0x418 c:/nds/devkitarm/bin/../lib/gcc/arm-eabi/4.3.0/../../../../arm-eabi/lib/thumb\libg.a(lib_a-impure.o)
                0x0200c978                _impure_ptr
 .data          0x0200cd90        0x0 c:/nds/devkitarm/bin/../lib/gcc/arm-eabi/4.3.0/../../../../arm-eabi/lib/thumb\libg.a(lib_a-init.o)
 .data          0x0200cd90        0x0 c:/nds/devkitarm/bin/../lib/gcc/arm-eabi/4.3.0/../../../../arm-eabi/lib/thumb\libg.a(lib_a-iprintf.o)
 .data          0x0200cd90        0x0 c:/nds/devkitarm/bin/../lib/gcc/arm-eabi/4.3.0/../../../../arm-eabi/lib/thumb\libg.a(lib_a-memcpy.o)
 .data          0x0200cd90        0x0 c:/nds/devkitarm/bin/../lib/gcc/arm-eabi/4.3.0/../../../../arm-eabi/lib/thumb\libg.a(lib_a-memmove.o)
 .data          0x0200cd90        0x0 c:/nds/devkitarm/bin/../lib/gcc/arm-eabi/4.3.0/../../../../arm-eabi/lib/thumb\libg.a(lib_a-setvbuf.o)
 .data          0x0200cd90        0x0 c:/nds/devkitarm/bin/../lib/gcc/arm-eabi/4.3.0/../../../../arm-eabi/lib/thumb\libg.a(lib_a-siscanf.o)
 .data          0x0200cd90        0x0 c:/nds/devkitarm/bin/../lib/gcc/arm-eabi/4.3.0/../../../../arm-eabi/lib/thumb\libg.a(lib_a-strlen.o)
 .data          0x0200cd90        0x0 c:/nds/devkitarm/bin/../lib/gcc/arm-eabi/4.3.0/../../../../arm-eabi/lib/thumb\libg.a(lib_a-sysstat.o)
 .data          0x0200cd90        0x0 c:/nds/devkitarm/bin/../lib/gcc/arm-eabi/4.3.0/../../../../arm-eabi/lib/thumb\libg.a(lib_a-vfiprintf.o)
 .data          0x0200cd90        0x0 c:/nds/devkitarm/bin/../lib/gcc/arm-eabi/4.3.0/../../../../arm-eabi/lib/thumb\libg.a(lib_a-vfiscanf.o)
 .data          0x0200cd90        0x0 c:/nds/devkitarm/bin/../lib/gcc/arm-eabi/4.3.0/../../../../arm-eabi/lib/thumb\libg.a(lib_a-wcrtomb.o)
 .data          0x0200cd90        0x0 c:/nds/devkitarm/bin/../lib/gcc/arm-eabi/4.3.0/../../../../arm-eabi/lib/thumb\libg.a(lib_a-wcsrtombs.o)
 .data          0x0200cd90        0x0 c:/nds/devkitarm/bin/../lib/gcc/arm-eabi/4.3.0/../../../../arm-eabi/lib/thumb\libg.a(lib_a-wctomb_r.o)
 .data          0x0200cd90        0x0 c:/nds/devkitarm/bin/../lib/gcc/arm-eabi/4.3.0/../../../../arm-eabi/lib/thumb\libg.a(lib_a-wsetup.o)
 .data          0x0200cd90        0x4 c:/nds/devkitarm/bin/../lib/gcc/arm-eabi/4.3.0/../../../../arm-eabi/lib/thumb\libg.a(lib_a-ctype_.o)
                0x0200cd90                __ctype_ptr
 .data          0x0200cd94        0x0 c:/nds/devkitarm/bin/../lib/gcc/arm-eabi/4.3.0/../../../../arm-eabi/lib/thumb\libg.a(lib_a-fflush.o)
 .data          0x0200cd94        0x0 c:/nds/devkitarm/bin/../lib/gcc/arm-eabi/4.3.0/../../../../arm-eabi/lib/thumb\libg.a(lib_a-findfp.o)
 .data          0x0200cd94        0x0 c:/nds/devkitarm/bin/../lib/gcc/arm-eabi/4.3.0/../../../../arm-eabi/lib/thumb\libg.a(lib_a-fread.o)
 .data          0x0200cd94        0x0 c:/nds/devkitarm/bin/../lib/gcc/arm-eabi/4.3.0/../../../../arm-eabi/lib/thumb\libg.a(lib_a-freer.o)
 .data          0x0200cd94        0x0 c:/nds/devkitarm/bin/../lib/gcc/arm-eabi/4.3.0/../../../../arm-eabi/lib/thumb\libg.a(lib_a-fvwrite.o)
 .data          0x0200cd94        0x0 c:/nds/devkitarm/bin/../lib/gcc/arm-eabi/4.3.0/../../../../arm-eabi/lib/thumb\libg.a(lib_a-fwalk.o)
 .data          0x0200cd94        0x0 c:/nds/devkitarm/bin/../lib/gcc/arm-eabi/4.3.0/../../../../arm-eabi/lib/thumb\libg.a(lib_a-iswspace.o)
 .data          0x0200cd94        0x0 c:/nds/devkitarm/bin/../lib/gcc/arm-eabi/4.3.0/../../../../arm-eabi/lib/thumb\libg.a(lib_a-jp2uc.o)
 .data          0x0200cd94       0x38 c:/nds/devkitarm/bin/../lib/gcc/arm-eabi/4.3.0/../../../../arm-eabi/lib/thumb\libg.a(lib_a-locale.o)
                0x0200cd94                __mb_cur_max
                0x0200cd98                __lc_ctype
 .data          0x0200cdcc        0x0 c:/nds/devkitarm/bin/../lib/gcc/arm-eabi/4.3.0/../../../../arm-eabi/lib/thumb\libg.a(lib_a-makebuf.o)
 .data          0x0200cdcc        0x0 c:/nds/devkitarm/bin/../lib/gcc/arm-eabi/4.3.0/../../../../arm-eabi/lib/thumb\libg.a(lib_a-malloc.o)
 .data          0x0200cdcc      0x410 c:/nds/devkitarm/bin/../lib/gcc/arm-eabi/4.3.0/../../../../arm-eabi/lib/thumb\libg.a(lib_a-mallocr.o)
                0x0200d1d8                __malloc_sbrk_base
                0x0200cdcc                __malloc_av_
                0x0200d1d4                __malloc_trim_threshold
 .data          0x0200d1dc        0x0 c:/nds/devkitarm/bin/../lib/gcc/arm-eabi/4.3.0/../../../../arm-eabi/lib/thumb\libg.a(lib_a-mbrtowc.o)
 .data          0x0200d1dc        0x0 c:/nds/devkitarm/bin/../lib/gcc/arm-eabi/4.3.0/../../../../arm-eabi/lib/thumb\libg.a(lib_a-mbtowc_r.o)
 .data          0x0200d1dc        0x0 c:/nds/devkitarm/bin/../lib/gcc/arm-eabi/4.3.0/../../../../arm-eabi/lib/thumb\libg.a(lib_a-memchr.o)
 .data          0x0200d1dc        0x0 c:/nds/devkitarm/bin/../lib/gcc/arm-eabi/4.3.0/../../../../arm-eabi/lib/thumb\libg.a(lib_a-memset.o)
 .data          0x0200d1dc        0x0 c:/nds/devkitarm/bin/../lib/gcc/arm-eabi/4.3.0/../../../../arm-eabi/lib/thumb\libg.a(lib_a-mlock.o)
 .data          0x0200d1dc        0x0 c:/nds/devkitarm/bin/../lib/gcc/arm-eabi/4.3.0/../../../../arm-eabi/lib/thumb\libg.a(lib_a-reallocr.o)
 .data          0x0200d1dc        0x0 c:/nds/devkitarm/bin/../lib/gcc/arm-eabi/4.3.0/../../../../arm-eabi/lib/thumb\libg.a(lib_a-refill.o)
 .data          0x0200d1dc        0x0 c:/nds/devkitarm/bin/../lib/gcc/arm-eabi/4.3.0/../../../../arm-eabi/lib/thumb\libg.a(lib_a-sccl.o)
 .data          0x0200d1dc        0x0 c:/nds/devkitarm/bin/../lib/gcc/arm-eabi/4.3.0/../../../../arm-eabi/lib/thumb\libg.a(lib_a-stdio.o)
 .data          0x0200d1dc        0x0 c:/nds/devkitarm/bin/../lib/gcc/arm-eabi/4.3.0/../../../../arm-eabi/lib/thumb\libg.a(lib_a-strcmp.o)
 .data          0x0200d1dc        0x0 c:/nds/devkitarm/bin/../lib/gcc/arm-eabi/4.3.0/../../../../arm-eabi/lib/thumb\libg.a(lib_a-strcpy.o)
 .data          0x0200d1dc        0x0 c:/nds/devkitarm/bin/../lib/gcc/arm-eabi/4.3.0/../../../../arm-eabi/lib/thumb\libg.a(lib_a-strtol.o)
 .data          0x0200d1dc        0x0 c:/nds/devkitarm/bin/../lib/gcc/arm-eabi/4.3.0/../../../../arm-eabi/lib/thumb\libg.a(lib_a-strtoul.o)
 .data          0x0200d1dc        0x0 c:/nds/devkitarm/bin/../lib/gcc/arm-eabi/4.3.0/../../../../arm-eabi/lib/thumb\libg.a(lib_a-ungetc.o)
 .data          0x0200d1dc        0x0 c:/nds/devkitarm/bin/../lib/gcc/arm-eabi/4.3.0/../../../../arm-eabi/lib/thumb\libg.a(lib_a-fclose.o)
 .data          0x0200d1dc       0x44 c:/nds/devkitarm/bin/../lib/gcc/arm-eabi/4.3.0/../../../../arm-eabi/lib/thumb\libsysbase.a(iosupport.o)
                0x0200d1dc                devoptab_list
 .data          0x0200d220        0x0 c:/nds/devkitarm/bin/../lib/gcc/arm-eabi/4.3.0/../../../../arm-eabi/lib/thumb\libsysbase.a(close.o)
 .data          0x0200d220        0x0 c:/nds/devkitarm/bin/../lib/gcc/arm-eabi/4.3.0/../../../../arm-eabi/lib/thumb\libsysbase.a(fstat.o)
 .data          0x0200d220        0x0 c:/nds/devkitarm/bin/../lib/gcc/arm-eabi/4.3.0/../../../../arm-eabi/lib/thumb\libsysbase.a(isatty.o)
 .data          0x0200d220        0x0 c:/nds/devkitarm/bin/../lib/gcc/arm-eabi/4.3.0/../../../../arm-eabi/lib/thumb\libsysbase.a(lseek.o)
 .data          0x0200d220        0x0 c:/nds/devkitarm/bin/../lib/gcc/arm-eabi/4.3.0/../../../../arm-eabi/lib/thumb\libsysbase.a(read.o)
 .data          0x0200d220        0x0 c:/nds/devkitarm/bin/../lib/gcc/arm-eabi/4.3.0/../../../../arm-eabi/lib/thumb\libsysbase.a(sbrk.o)
 .data          0x0200d220        0x0 c:/nds/devkitarm/bin/../lib/gcc/arm-eabi/4.3.0/../../../../arm-eabi/lib/thumb\libsysbase.a(stat.o)
 .data          0x0200d220        0x0 c:/nds/devkitarm/bin/../lib/gcc/arm-eabi/4.3.0/../../../../arm-eabi/lib/thumb\libsysbase.a(times.o)
 .data          0x0200d220        0x0 c:/nds/devkitarm/bin/../lib/gcc/arm-eabi/4.3.0/../../../../arm-eabi/lib/thumb\libsysbase.a(write.o)
 .data          0x0200d220        0x0 c:/nds/devkitarm/bin/../lib/gcc/arm-eabi/4.3.0/../../../../arm-eabi/lib/thumb\libsysbase.a(malloc_vars.o)
 .data          0x0200d220        0x0 c:/nds/devkitarm/bin/../lib/gcc/arm-eabi/4.3.0/../../../../arm-eabi/lib/thumb\libsysbase.a(build_argv.o)
 .data          0x0200d220        0x0 c:/nds/devkitarm/bin/../lib/gcc/arm-eabi/4.3.0/thumb\libgcc.a(_udivsi3.o)
 .data          0x0200d220        0x0 c:/nds/devkitarm/bin/../lib/gcc/arm-eabi/4.3.0/thumb\libgcc.a(_dvmd_tls.o)
 .data          0x0200d220        0x0 c:/nds/devkitarm/bin/../lib/gcc/arm-eabi/4.3.0/../../../../arm-eabi/lib/thumb\libg.a(lib_a-errno.o)
 .data          0x0200d220        0x0 c:/nds/devkitarm/bin/../lib/gcc/arm-eabi/4.3.0/../../../../arm-eabi/lib/thumb\libg.a(lib_a-strncmp.o)
 .data          0x0200d220        0x0 c:/nds/devkitarm/bin/../lib/gcc/arm-eabi/4.3.0/thumb/crtend.o
 .data          0x0200d220        0x0 c:/nds/devkitarm/bin/../lib/gcc/arm-eabi/4.3.0/thumb/crtn.o
 *(.data.*)
 *(.gnu.linkonce.d*)
                0x0200d220                . = ALIGN (0x4)
                0x0200d220                __data_end = <code 345> (.)
                0x0200d220                __dtcm_lma = .
                0x0200d220                __bss_vma = .

.dtcm           0x0b000000        0x0 load address 0x0200d220
 *(.dtcm)
 *(.dtcm.*)
                0x0b000000                . = ALIGN (0x4)
                0x0b000000                __dtcm_end = <code 345> (.)
                0x0200d220                __itcm_lma = (__dtcm_lma + SIZEOF (.dtcm))

.itcm           0x01000000      0x190 load address 0x0200d220
 *(.itcm)
 .itcm          0x01000000       0xc8 c:/nds/libnds/lib\libnds9.a(interrupts.o)
                0x01000000                irqTable
 .itcm          0x010000c8       0xc8 c:/nds/libnds/lib\libnds9.a(interruptDispatcher.o)
                0x010000c8                IntrMain
 *itcm.*(.text)
                0x01000190                . = ALIGN (0x4)
                0x01000190                __itcm_end = <code 345> (.)

.sbss           0x0b000000        0x0
                0x0b000000                __sbss_start = <code 345> (.)
                0x0b000000                __sbss_start__ = <code 345> (.)
 *(.sbss)
                0x0b000000                . = ALIGN (0x4)
                0x0b000000                __sbss_end = <code 345> (.)

.bss            0x0200d220      0x2ac
                0x0200d220                __bss_start = <code 345> (.)
                0x0200d220                __bss_start__ = <code 345> (.)
 *(.dynbss)
 *(.gnu.linkonce.b*)
 *(.bss*)
 .bss           0x0200d220        0x0 c:/nds/devkitarm/bin/../lib/gcc/arm-eabi/4.3.0/../../../../arm-eabi/lib/thumb/ds_arm9_crt0.o
 .bss           0x0200d220        0x0 c:/nds/devkitarm/bin/../lib/gcc/arm-eabi/4.3.0/thumb/crti.o
 .bss           0x0200d220       0x1c c:/nds/devkitarm/bin/../lib/gcc/arm-eabi/4.3.0/thumb/crtbegin.o
 .bss           0x0200d23c        0x0 main.o
 .bss           0x0200d23c        0x0 reboot.o
 .bss           0x0200d23c        0x8 spi_driver.o
 .bss           0x0200d244        0xc uart.o
                0x0200d24e                outTraceStop
                0x0200d246                outBufferSize
                0x0200d245                inBufferHead
                0x0200d24c                outTraceStart
                0x0200d247                outBufferHead
                0x0200d244                inBufferSize
                0x0200d248                outTraceDest
 .bss           0x0200d250       0x24 c:/nds/libnds/lib\libnds9.a(console.o)
                0x0200d250                fontBold
 .bss           0x0200d274        0x0 c:/nds/libnds/lib\libnds9.a(initSystem.o)
 .bss           0x0200d274        0x6 c:/nds/libnds/lib\libnds9.a(keys.o)
 .bss           0x0200d27a        0x0 c:/nds/libnds/lib\libnds9.a(touch.o)
 .bss           0x0200d27a        0x0 c:/nds/libnds/lib\libnds9.a(video.o)
 .bss           0x0200d27a        0x0 c:/nds/libnds/lib\libnds9.a(interrupts.o)
 .bss           0x0200d27a        0x0 c:/nds/libnds/lib\libnds9.a(biosCalls.o)
 .bss           0x0200d27a        0x0 c:/nds/libnds/lib\libnds9.a(interruptDispatcher.o)
 .bss           0x0200d27a        0x0 c:/nds/libnds/lib\libnds9.a(default_font.o)
 .bss           0x0200d27a        0x0 c:/nds/devkitarm/bin/../lib/gcc/arm-eabi/4.3.0/../../../../arm-eabi/lib/thumb\libg.a(lib_a-impure.o)
 .bss           0x0200d27a        0x0 c:/nds/devkitarm/bin/../lib/gcc/arm-eabi/4.3.0/../../../../arm-eabi/lib/thumb\libg.a(lib_a-init.o)
 .bss           0x0200d27a        0x0 c:/nds/devkitarm/bin/../lib/gcc/arm-eabi/4.3.0/../../../../arm-eabi/lib/thumb\libg.a(lib_a-iprintf.o)
 .bss           0x0200d27a        0x0 c:/nds/devkitarm/bin/../lib/gcc/arm-eabi/4.3.0/../../../../arm-eabi/lib/thumb\libg.a(lib_a-memcpy.o)
 .bss           0x0200d27a        0x0 c:/nds/devkitarm/bin/../lib/gcc/arm-eabi/4.3.0/../../../../arm-eabi/lib/thumb\libg.a(lib_a-memmove.o)
 .bss           0x0200d27a        0x0 c:/nds/devkitarm/bin/../lib/gcc/arm-eabi/4.3.0/../../../../arm-eabi/lib/thumb\libg.a(lib_a-setvbuf.o)
 .bss           0x0200d27a        0x0 c:/nds/devkitarm/bin/../lib/gcc/arm-eabi/4.3.0/../../../../arm-eabi/lib/thumb\libg.a(lib_a-siscanf.o)
 .bss           0x0200d27a        0x0 c:/nds/devkitarm/bin/../lib/gcc/arm-eabi/4.3.0/../../../../arm-eabi/lib/thumb\libg.a(lib_a-strlen.o)
 .bss           0x0200d27a        0x0 c:/nds/devkitarm/bin/../lib/gcc/arm-eabi/4.3.0/../../../../arm-eabi/lib/thumb\libg.a(lib_a-sysstat.o)
 .bss           0x0200d27a        0x0 c:/nds/devkitarm/bin/../lib/gcc/arm-eabi/4.3.0/../../../../arm-eabi/lib/thumb\libg.a(lib_a-vfiprintf.o)
 .bss           0x0200d27a        0x0 c:/nds/devkitarm/bin/../lib/gcc/arm-eabi/4.3.0/../../../../arm-eabi/lib/thumb\libg.a(lib_a-vfiscanf.o)
 .bss           0x0200d27a        0x0 c:/nds/devkitarm/bin/../lib/gcc/arm-eabi/4.3.0/../../../../arm-eabi/lib/thumb\libg.a(lib_a-wcrtomb.o)
 .bss           0x0200d27a        0x0 c:/nds/devkitarm/bin/../lib/gcc/arm-eabi/4.3.0/../../../../arm-eabi/lib/thumb\libg.a(lib_a-wcsrtombs.o)
 .bss           0x0200d27a        0x0 c:/nds/devkitarm/bin/../lib/gcc/arm-eabi/4.3.0/../../../../arm-eabi/lib/thumb\libg.a(lib_a-wctomb_r.o)
 .bss           0x0200d27a        0x0 c:/nds/devkitarm/bin/../lib/gcc/arm-eabi/4.3.0/../../../../arm-eabi/lib/thumb\libg.a(lib_a-wsetup.o)
 .bss           0x0200d27a        0x0 c:/nds/devkitarm/bin/../lib/gcc/arm-eabi/4.3.0/../../../../arm-eabi/lib/thumb\libg.a(lib_a-ctype_.o)
 .bss           0x0200d27a        0x0 c:/nds/devkitarm/bin/../lib/gcc/arm-eabi/4.3.0/../../../../arm-eabi/lib/thumb\libg.a(lib_a-fflush.o)
 .bss           0x0200d27a        0x0 c:/nds/devkitarm/bin/../lib/gcc/arm-eabi/4.3.0/../../../../arm-eabi/lib/thumb\libg.a(lib_a-findfp.o)
 .bss           0x0200d27a        0x0 c:/nds/devkitarm/bin/../lib/gcc/arm-eabi/4.3.0/../../../../arm-eabi/lib/thumb\libg.a(lib_a-fread.o)
 .bss           0x0200d27a        0x0 c:/nds/devkitarm/bin/../lib/gcc/arm-eabi/4.3.0/../../../../arm-eabi/lib/thumb\libg.a(lib_a-freer.o)
 .bss           0x0200d27a        0x0 c:/nds/devkitarm/bin/../lib/gcc/arm-eabi/4.3.0/../../../../arm-eabi/lib/thumb\libg.a(lib_a-fvwrite.o)
 .bss           0x0200d27a        0x0 c:/nds/devkitarm/bin/../lib/gcc/arm-eabi/4.3.0/../../../../arm-eabi/lib/thumb\libg.a(lib_a-fwalk.o)
 .bss           0x0200d27a        0x0 c:/nds/devkitarm/bin/../lib/gcc/arm-eabi/4.3.0/../../../../arm-eabi/lib/thumb\libg.a(lib_a-iswspace.o)
 .bss           0x0200d27a        0x0 c:/nds/devkitarm/bin/../lib/gcc/arm-eabi/4.3.0/../../../../arm-eabi/lib/thumb\libg.a(lib_a-jp2uc.o)
 *fill*         0x0200d27a        0x2 00
 .bss           0x0200d27c        0xc c:/nds/devkitarm/bin/../lib/gcc/arm-eabi/4.3.0/../../../../arm-eabi/lib/thumb\libg.a(lib_a-locale.o)
                0x0200d27c                __nlocale_changed
                0x0200d280                __mlocale_changed
                0x0200d284                _PathLocale
 .bss           0x0200d288        0x0 c:/nds/devkitarm/bin/../lib/gcc/arm-eabi/4.3.0/../../../../arm-eabi/lib/thumb\libg.a(lib_a-makebuf.o)
 .bss           0x0200d288        0x0 c:/nds/devkitarm/bin/../lib/gcc/arm-eabi/4.3.0/../../../../arm-eabi/lib/thumb\libg.a(lib_a-malloc.o)
 .bss           0x0200d288       0x34 c:/nds/devkitarm/bin/../lib/gcc/arm-eabi/4.3.0/../../../../arm-eabi/lib/thumb\libg.a(lib_a-mallocr.o)
                0x0200d288                __malloc_top_pad
                0x0200d28c                __malloc_max_sbrked_mem
                0x0200d294                __malloc_current_mallinfo
                0x0200d290                __malloc_max_total_mem
 .bss           0x0200d2bc        0x0 c:/nds/devkitarm/bin/../lib/gcc/arm-eabi/4.3.0/../../../../arm-eabi/lib/thumb\libg.a(lib_a-mbrtowc.o)
 .bss           0x0200d2bc        0x0 c:/nds/devkitarm/bin/../lib/gcc/arm-eabi/4.3.0/../../../../arm-eabi/lib/thumb\libg.a(lib_a-mbtowc_r.o)
 .bss           0x0200d2bc        0x0 c:/nds/devkitarm/bin/../lib/gcc/arm-eabi/4.3.0/../../../../arm-eabi/lib/thumb\libg.a(lib_a-memchr.o)
 .bss           0x0200d2bc        0x0 c:/nds/devkitarm/bin/../lib/gcc/arm-eabi/4.3.0/../../../../arm-eabi/lib/thumb\libg.a(lib_a-memset.o)
 .bss           0x0200d2bc        0x0 c:/nds/devkitarm/bin/../lib/gcc/arm-eabi/4.3.0/../../../../arm-eabi/lib/thumb\libg.a(lib_a-mlock.o)
 .bss           0x0200d2bc        0x0 c:/nds/devkitarm/bin/../lib/gcc/arm-eabi/4.3.0/../../../../arm-eabi/lib/thumb\libg.a(lib_a-reallocr.o)
 .bss           0x0200d2bc        0x0 c:/nds/devkitarm/bin/../lib/gcc/arm-eabi/4.3.0/../../../../arm-eabi/lib/thumb\libg.a(lib_a-refill.o)
 .bss           0x0200d2bc        0x0 c:/nds/devkitarm/bin/../lib/gcc/arm-eabi/4.3.0/../../../../arm-eabi/lib/thumb\libg.a(lib_a-sccl.o)
 .bss           0x0200d2bc        0x0 c:/nds/devkitarm/bin/../lib/gcc/arm-eabi/4.3.0/../../../../arm-eabi/lib/thumb\libg.a(lib_a-stdio.o)
 .bss           0x0200d2bc        0x0 c:/nds/devkitarm/bin/../lib/gcc/arm-eabi/4.3.0/../../../../arm-eabi/lib/thumb\libg.a(lib_a-strcmp.o)
 .bss           0x0200d2bc        0x0 c:/nds/devkitarm/bin/../lib/gcc/arm-eabi/4.3.0/../../../../arm-eabi/lib/thumb\libg.a(lib_a-strcpy.o)
 .bss           0x0200d2bc        0x0 c:/nds/devkitarm/bin/../lib/gcc/arm-eabi/4.3.0/../../../../arm-eabi/lib/thumb\libg.a(lib_a-strtol.o)
 .bss           0x0200d2bc        0x0 c:/nds/devkitarm/bin/../lib/gcc/arm-eabi/4.3.0/../../../../arm-eabi/lib/thumb\libg.a(lib_a-strtoul.o)
 .bss           0x0200d2bc        0x0 c:/nds/devkitarm/bin/../lib/gcc/arm-eabi/4.3.0/../../../../arm-eabi/lib/thumb\libg.a(lib_a-ungetc.o)
 .bss           0x0200d2bc        0x0 c:/nds/devkitarm/bin/../lib/gcc/arm-eabi/4.3.0/../../../../arm-eabi/lib/thumb\libg.a(lib_a-fclose.o)
 .bss           0x0200d2bc        0x0 c:/nds/devkitarm/bin/../lib/gcc/arm-eabi/4.3.0/../../../../arm-eabi/lib/thumb\libsysbase.a(iosupport.o)
 .bss           0x0200d2bc        0x0 c:/nds/devkitarm/bin/../lib/gcc/arm-eabi/4.3.0/../../../../arm-eabi/lib/thumb\libsysbase.a(close.o)
 .bss           0x0200d2bc        0x0 c:/nds/devkitarm/bin/../lib/gcc/arm-eabi/4.3.0/../../../../arm-eabi/lib/thumb\libsysbase.a(fstat.o)
 .bss           0x0200d2bc        0x0 c:/nds/devkitarm/bin/../lib/gcc/arm-eabi/4.3.0/../../../../arm-eabi/lib/thumb\libsysbase.a(isatty.o)
 .bss           0x0200d2bc        0x0 c:/nds/devkitarm/bin/../lib/gcc/arm-eabi/4.3.0/../../../../arm-eabi/lib/thumb\libsysbase.a(lseek.o)
 .bss           0x0200d2bc        0x0 c:/nds/devkitarm/bin/../lib/gcc/arm-eabi/4.3.0/../../../../arm-eabi/lib/thumb\libsysbase.a(read.o)
 .bss           0x0200d2bc        0x4 c:/nds/devkitarm/bin/../lib/gcc/arm-eabi/4.3.0/../../../../arm-eabi/lib/thumb\libsysbase.a(sbrk.o)
 .bss           0x0200d2c0        0x0 c:/nds/devkitarm/bin/../lib/gcc/arm-eabi/4.3.0/../../../../arm-eabi/lib/thumb\libsysbase.a(stat.o)
 .bss           0x0200d2c0        0x0 c:/nds/devkitarm/bin/../lib/gcc/arm-eabi/4.3.0/../../../../arm-eabi/lib/thumb\libsysbase.a(times.o)
 .bss           0x0200d2c0        0x0 c:/nds/devkitarm/bin/../lib/gcc/arm-eabi/4.3.0/../../../../arm-eabi/lib/thumb\libsysbase.a(write.o)
 .bss           0x0200d2c0        0x8 c:/nds/devkitarm/bin/../lib/gcc/arm-eabi/4.3.0/../../../../arm-eabi/lib/thumb\libsysbase.a(malloc_vars.o)
                0x0200d2c4                fake_heap_start
                0x0200d2c0                fake_heap_end
 .bss           0x0200d2c8        0x0 c:/nds/devkitarm/bin/../lib/gcc/arm-eabi/4.3.0/../../../../arm-eabi/lib/thumb\libsysbase.a(build_argv.o)
 .bss           0x0200d2c8        0x0 c:/nds/devkitarm/bin/../lib/gcc/arm-eabi/4.3.0/thumb\libgcc.a(_udivsi3.o)
 .bss           0x0200d2c8        0x0 c:/nds/devkitarm/bin/../lib/gcc/arm-eabi/4.3.0/thumb\libgcc.a(_dvmd_tls.o)
 .bss           0x0200d2c8        0x0 c:/nds/devkitarm/bin/../lib/gcc/arm-eabi/4.3.0/../../../../arm-eabi/lib/thumb\libg.a(lib_a-errno.o)
 .bss           0x0200d2c8        0x0 c:/nds/devkitarm/bin/../lib/gcc/arm-eabi/4.3.0/../../../../arm-eabi/lib/thumb\libg.a(lib_a-strncmp.o)
 .bss           0x0200d2c8        0x0 c:/nds/devkitarm/bin/../lib/gcc/arm-eabi/4.3.0/thumb/crtend.o
 .bss           0x0200d2c8        0x0 c:/nds/devkitarm/bin/../lib/gcc/arm-eabi/4.3.0/thumb/crtn.o
 *(COMMON)
 COMMON         0x0200d2c8      0x1fe uart.o
                0x0200d2c8                outBuffer
                0x0200d3c7                inBuffer
 *fill*         0x0200d4c6        0x2 00
 COMMON         0x0200d4c8        0x4 c:/nds/devkitarm/bin/../lib/gcc/arm-eabi/4.3.0/../../../../arm-eabi/lib/thumb\libsysbase.a(times.o)
                0x0200d4c8                punixTime
                0x0200d4cc                . = ALIGN (0x4)
                0x0200d4cc                __bss_end = <code 345> (.)
                0x0200d4cc                __bss_end__ = __bss_end
                0x0200d4cc                _end = __bss_end__
                0x0200d4cc                __end__ = __bss_end__

.stab
 *(.stab)

.stabstr
 *(.stabstr)

.stab.excl
 *(.stab.excl)

.stab.exclstr
 *(.stab.exclstr)

.stab.index
 *(.stab.index)

.stab.indexstr
 *(.stab.indexstr)

.comment        0x00000000      0x993
 *(.comment)
 .comment       0x00000000       0x23 c:/nds/devkitarm/bin/../lib/gcc/arm-eabi/4.3.0/thumb/crtbegin.o
 .comment       0x00000023       0x23 main.o
 .comment       0x00000046       0x23 reboot.o
 .comment       0x00000069       0x23 spi_driver.o
 .comment       0x0000008c       0x23 uart.o
 .comment       0x000000af       0x29 c:/nds/libnds/lib\libnds9.a(console.o)
 .comment       0x000000d8       0x29 c:/nds/libnds/lib\libnds9.a(initSystem.o)
 .comment       0x00000101       0x29 c:/nds/libnds/lib\libnds9.a(keys.o)
 .comment       0x0000012a       0x29 c:/nds/libnds/lib\libnds9.a(touch.o)
 .comment       0x00000153       0x29 c:/nds/libnds/lib\libnds9.a(video.o)
 .comment       0x0000017c       0x29 c:/nds/libnds/lib\libnds9.a(interrupts.o)
 .comment       0x000001a5       0x23 c:/nds/devkitarm/bin/../lib/gcc/arm-eabi/4.3.0/../../../../arm-eabi/lib/thumb\libg.a(lib_a-impure.o)
 .comment       0x000001c8       0x23 c:/nds/devkitarm/bin/../lib/gcc/arm-eabi/4.3.0/../../../../arm-eabi/lib/thumb\libg.a(lib_a-init.o)
 .comment       0x000001eb       0x23 c:/nds/devkitarm/bin/../lib/gcc/arm-eabi/4.3.0/../../../../arm-eabi/lib/thumb\libg.a(lib_a-iprintf.o)
 .comment       0x0000020e       0x23 c:/nds/devkitarm/bin/../lib/gcc/arm-eabi/4.3.0/../../../../arm-eabi/lib/thumb\libg.a(lib_a-memcpy.o)
 .comment       0x00000231       0x23 c:/nds/devkitarm/bin/../lib/gcc/arm-eabi/4.3.0/../../../../arm-eabi/lib/thumb\libg.a(lib_a-memmove.o)
 .comment       0x00000254       0x23 c:/nds/devkitarm/bin/../lib/gcc/arm-eabi/4.3.0/../../../../arm-eabi/lib/thumb\libg.a(lib_a-setvbuf.o)
 .comment       0x00000277       0x23 c:/nds/devkitarm/bin/../lib/gcc/arm-eabi/4.3.0/../../../../arm-eabi/lib/thumb\libg.a(lib_a-siscanf.o)
 .comment       0x0000029a       0x23 c:/nds/devkitarm/bin/../lib/gcc/arm-eabi/4.3.0/../../../../arm-eabi/lib/thumb\libg.a(lib_a-strlen.o)
 .comment       0x000002bd       0x23 c:/nds/devkitarm/bin/../lib/gcc/arm-eabi/4.3.0/../../../../arm-eabi/lib/thumb\libg.a(lib_a-sysstat.o)
 .comment       0x000002e0       0x23 c:/nds/devkitarm/bin/../lib/gcc/arm-eabi/4.3.0/../../../../arm-eabi/lib/thumb\libg.a(lib_a-vfiprintf.o)
 .comment       0x00000303       0x23 c:/nds/devkitarm/bin/../lib/gcc/arm-eabi/4.3.0/../../../../arm-eabi/lib/thumb\libg.a(lib_a-vfiscanf.o)
 .comment       0x00000326       0x23 c:/nds/devkitarm/bin/../lib/gcc/arm-eabi/4.3.0/../../../../arm-eabi/lib/thumb\libg.a(lib_a-wcrtomb.o)
 .comment       0x00000349       0x23 c:/nds/devkitarm/bin/../lib/gcc/arm-eabi/4.3.0/../../../../arm-eabi/lib/thumb\libg.a(lib_a-wcsrtombs.o)
 .comment       0x0000036c       0x23 c:/nds/devkitarm/bin/../lib/gcc/arm-eabi/4.3.0/../../../../arm-eabi/lib/thumb\libg.a(lib_a-wctomb_r.o)
 .comment       0x0000038f       0x23 c:/nds/devkitarm/bin/../lib/gcc/arm-eabi/4.3.0/../../../../arm-eabi/lib/thumb\libg.a(lib_a-wsetup.o)
 .comment       0x000003b2       0x23 c:/nds/devkitarm/bin/../lib/gcc/arm-eabi/4.3.0/../../../../arm-eabi/lib/thumb\libg.a(lib_a-ctype_.o)
 .comment       0x000003d5       0x23 c:/nds/devkitarm/bin/../lib/gcc/arm-eabi/4.3.0/../../../../arm-eabi/lib/thumb\libg.a(lib_a-fflush.o)
 .comment       0x000003f8       0x23 c:/nds/devkitarm/bin/../lib/gcc/arm-eabi/4.3.0/../../../../arm-eabi/lib/thumb\libg.a(lib_a-findfp.o)
 .comment       0x0000041b       0x23 c:/nds/devkitarm/bin/../lib/gcc/arm-eabi/4.3.0/../../../../arm-eabi/lib/thumb\libg.a(lib_a-fread.o)
 .comment       0x0000043e       0x23 c:/nds/devkitarm/bin/../lib/gcc/arm-eabi/4.3.0/../../../../arm-eabi/lib/thumb\libg.a(lib_a-freer.o)
 .comment       0x00000461       0x23 c:/nds/devkitarm/bin/../lib/gcc/arm-eabi/4.3.0/../../../../arm-eabi/lib/thumb\libg.a(lib_a-fvwrite.o)
 .comment       0x00000484       0x23 c:/nds/devkitarm/bin/../lib/gcc/arm-eabi/4.3.0/../../../../arm-eabi/lib/thumb\libg.a(lib_a-fwalk.o)
 .comment       0x000004a7       0x23 c:/nds/devkitarm/bin/../lib/gcc/arm-eabi/4.3.0/../../../../arm-eabi/lib/thumb\libg.a(lib_a-iswspace.o)
 .comment       0x000004ca       0x23 c:/nds/devkitarm/bin/../lib/gcc/arm-eabi/4.3.0/../../../../arm-eabi/lib/thumb\libg.a(lib_a-jp2uc.o)
 .comment       0x000004ed       0x23 c:/nds/devkitarm/bin/../lib/gcc/arm-eabi/4.3.0/../../../../arm-eabi/lib/thumb\libg.a(lib_a-locale.o)
 .comment       0x00000510       0x23 c:/nds/devkitarm/bin/../lib/gcc/arm-eabi/4.3.0/../../../../arm-eabi/lib/thumb\libg.a(lib_a-makebuf.o)
 .comment       0x00000533       0x23 c:/nds/devkitarm/bin/../lib/gcc/arm-eabi/4.3.0/../../../../arm-eabi/lib/thumb\libg.a(lib_a-malloc.o)
 .comment       0x00000556       0x23 c:/nds/devkitarm/bin/../lib/gcc/arm-eabi/4.3.0/../../../../arm-eabi/lib/thumb\libg.a(lib_a-mallocr.o)
 .comment       0x00000579       0x23 c:/nds/devkitarm/bin/../lib/gcc/arm-eabi/4.3.0/../../../../arm-eabi/lib/thumb\libg.a(lib_a-mbrtowc.o)
 .comment       0x0000059c       0x23 c:/nds/devkitarm/bin/../lib/gcc/arm-eabi/4.3.0/../../../../arm-eabi/lib/thumb\libg.a(lib_a-mbtowc_r.o)
 .comment       0x000005bf       0x23 c:/nds/devkitarm/bin/../lib/gcc/arm-eabi/4.3.0/../../../../arm-eabi/lib/thumb\libg.a(lib_a-memchr.o)
 .comment       0x000005e2       0x23 c:/nds/devkitarm/bin/../lib/gcc/arm-eabi/4.3.0/../../../../arm-eabi/lib/thumb\libg.a(lib_a-memset.o)
 .comment       0x00000605       0x23 c:/nds/devkitarm/bin/../lib/gcc/arm-eabi/4.3.0/../../../../arm-eabi/lib/thumb\libg.a(lib_a-mlock.o)
 .comment       0x00000628       0x23 c:/nds/devkitarm/bin/../lib/gcc/arm-eabi/4.3.0/../../../../arm-eabi/lib/thumb\libg.a(lib_a-reallocr.o)
 .comment       0x0000064b       0x23 c:/nds/devkitarm/bin/../lib/gcc/arm-eabi/4.3.0/../../../../arm-eabi/lib/thumb\libg.a(lib_a-refill.o)
 .comment       0x0000066e       0x23 c:/nds/devkitarm/bin/../lib/gcc/arm-eabi/4.3.0/../../../../arm-eabi/lib/thumb\libg.a(lib_a-sccl.o)
 .comment       0x00000691       0x23 c:/nds/devkitarm/bin/../lib/gcc/arm-eabi/4.3.0/../../../../arm-eabi/lib/thumb\libg.a(lib_a-stdio.o)
 .comment       0x000006b4       0x23 c:/nds/devkitarm/bin/../lib/gcc/arm-eabi/4.3.0/../../../../arm-eabi/lib/thumb\libg.a(lib_a-strcmp.o)
 .comment       0x000006d7       0x23 c:/nds/devkitarm/bin/../lib/gcc/arm-eabi/4.3.0/../../../../arm-eabi/lib/thumb\libg.a(lib_a-strcpy.o)
 .comment       0x000006fa       0x23 c:/nds/devkitarm/bin/../lib/gcc/arm-eabi/4.3.0/../../../../arm-eabi/lib/thumb\libg.a(lib_a-strtol.o)
 .comment       0x0000071d       0x23 c:/nds/devkitarm/bin/../lib/gcc/arm-eabi/4.3.0/../../../../arm-eabi/lib/thumb\libg.a(lib_a-strtoul.o)
 .comment       0x00000740       0x23 c:/nds/devkitarm/bin/../lib/gcc/arm-eabi/4.3.0/../../../../arm-eabi/lib/thumb\libg.a(lib_a-ungetc.o)
 .comment       0x00000763       0x23 c:/nds/devkitarm/bin/../lib/gcc/arm-eabi/4.3.0/../../../../arm-eabi/lib/thumb\libg.a(lib_a-fclose.o)
 .comment       0x00000786       0x23 c:/nds/devkitarm/bin/../lib/gcc/arm-eabi/4.3.0/../../../../arm-eabi/lib/thumb\libsysbase.a(iosupport.o)
 .comment       0x000007a9       0x23 c:/nds/devkitarm/bin/../lib/gcc/arm-eabi/4.3.0/../../../../arm-eabi/lib/thumb\libsysbase.a(close.o)
 .comment       0x000007cc       0x23 c:/nds/devkitarm/bin/../lib/gcc/arm-eabi/4.3.0/../../../../arm-eabi/lib/thumb\libsysbase.a(fstat.o)
 .comment       0x000007ef       0x23 c:/nds/devkitarm/bin/../lib/gcc/arm-eabi/4.3.0/../../../../arm-eabi/lib/thumb\libsysbase.a(isatty.o)
 .comment       0x00000812       0x23 c:/nds/devkitarm/bin/../lib/gcc/arm-eabi/4.3.0/../../../../arm-eabi/lib/thumb\libsysbase.a(lseek.o)
 .comment       0x00000835       0x23 c:/nds/devkitarm/bin/../lib/gcc/arm-eabi/4.3.0/../../../../arm-eabi/lib/thumb\libsysbase.a(read.o)
 .comment       0x00000858       0x23 c:/nds/devkitarm/bin/../lib/gcc/arm-eabi/4.3.0/../../../../arm-eabi/lib/thumb\libsysbase.a(sbrk.o)
 .comment       0x0000087b       0x23 c:/nds/devkitarm/bin/../lib/gcc/arm-eabi/4.3.0/../../../../arm-eabi/lib/thumb\libsysbase.a(stat.o)
 .comment       0x0000089e       0x23 c:/nds/devkitarm/bin/../lib/gcc/arm-eabi/4.3.0/../../../../arm-eabi/lib/thumb\libsysbase.a(times.o)
 .comment       0x000008c1       0x23 c:/nds/devkitarm/bin/../lib/gcc/arm-eabi/4.3.0/../../../../arm-eabi/lib/thumb\libsysbase.a(write.o)
 .comment       0x000008e4       0x23 c:/nds/devkitarm/bin/../lib/gcc/arm-eabi/4.3.0/../../../../arm-eabi/lib/thumb\libsysbase.a(malloc_vars.o)
 .comment       0x00000907       0x23 c:/nds/devkitarm/bin/../lib/gcc/arm-eabi/4.3.0/../../../../arm-eabi/lib/thumb\libsysbase.a(build_argv.o)
 .comment       0x0000092a       0x23 c:/nds/devkitarm/bin/../lib/gcc/arm-eabi/4.3.0/../../../../arm-eabi/lib/thumb\libg.a(lib_a-errno.o)
 .comment       0x0000094d       0x23 c:/nds/devkitarm/bin/../lib/gcc/arm-eabi/4.3.0/../../../../arm-eabi/lib/thumb\libg.a(lib_a-strncmp.o)
 .comment       0x00000970       0x23 c:/nds/devkitarm/bin/../lib/gcc/arm-eabi/4.3.0/thumb/crtend.o

.debug
 *(.debug)

.line
 *(.line)

.debug_srcinfo
 *(.debug_srcinfo)

.debug_sfnames
 *(.debug_sfnames)

.debug_aranges  0x00000000      0x190
 *(.debug_aranges)
 .debug_aranges
                0x00000000       0x28 c:/nds/devkitarm/bin/../lib/gcc/arm-eabi/4.3.0/thumb/crti.o
 .debug_aranges
                0x00000028       0x20 main.o
 .debug_aranges
                0x00000048       0x20 reboot.o
 .debug_aranges
                0x00000068       0x20 spi_driver.o
 .debug_aranges
                0x00000088       0x20 uart.o
 .debug_aranges
                0x000000a8       0x20 c:/nds/libnds/lib\libnds9.a(console.o)
 .debug_aranges
                0x000000c8       0x20 c:/nds/libnds/lib\libnds9.a(initSystem.o)
 .debug_aranges
                0x000000e8       0x20 c:/nds/libnds/lib\libnds9.a(keys.o)
 .debug_aranges
                0x00000108       0x20 c:/nds/libnds/lib\libnds9.a(touch.o)
 .debug_aranges
                0x00000128       0x20 c:/nds/libnds/lib\libnds9.a(video.o)
 .debug_aranges
                0x00000148       0x20 c:/nds/libnds/lib\libnds9.a(interrupts.o)
 .debug_aranges
                0x00000168       0x28 c:/nds/devkitarm/bin/../lib/gcc/arm-eabi/4.3.0/thumb/crtn.o

.debug_pubnames
                0x00000000      0x5c2
 *(.debug_pubnames)
 .debug_pubnames
                0x00000000       0x1b main.o
 .debug_pubnames
                0x0000001b       0x2c reboot.o
 .debug_pubnames
                0x00000047       0xbd spi_driver.o
 .debug_pubnames
                0x00000104      0x202 uart.o
 .debug_pubnames
                0x00000306       0x9f c:/nds/libnds/lib\libnds9.a(console.o)
 .debug_pubnames
                0x000003a5       0x21 c:/nds/libnds/lib\libnds9.a(initSystem.o)
 .debug_pubnames
                0x000003c6       0x69 c:/nds/libnds/lib\libnds9.a(keys.o)
 .debug_pubnames
                0x0000042f       0x22 c:/nds/libnds/lib\libnds9.a(touch.o)
 .debug_pubnames
                0x00000451       0xf1 c:/nds/libnds/lib\libnds9.a(video.o)
 .debug_pubnames
                0x00000542       0x80 c:/nds/libnds/lib\libnds9.a(interrupts.o)

.debug_info     0x00000000     0x40fe
 *(.debug_info)
 .debug_info    0x00000000       0x62 c:/nds/devkitarm/bin/../lib/gcc/arm-eabi/4.3.0/thumb/crti.o
 .debug_info    0x00000062      0x4d0 main.o
 .debug_info    0x00000532      0x4cc reboot.o
 .debug_info    0x000009fe      0x3c6 spi_driver.o
 .debug_info    0x00000dc4      0xa5b uart.o
 .debug_info    0x0000181f     0x1228 c:/nds/libnds/lib\libnds9.a(console.o)
 .debug_info    0x00002a47      0x54e c:/nds/libnds/lib\libnds9.a(initSystem.o)
 .debug_info    0x00002f95      0x4ea c:/nds/libnds/lib\libnds9.a(keys.o)
 .debug_info    0x0000347f      0x459 c:/nds/libnds/lib\libnds9.a(touch.o)
 .debug_info    0x000038d8      0x579 c:/nds/libnds/lib\libnds9.a(video.o)
 .debug_info    0x00003e51      0x24b c:/nds/libnds/lib\libnds9.a(interrupts.o)
 .debug_info    0x0000409c       0x62 c:/nds/devkitarm/bin/../lib/gcc/arm-eabi/4.3.0/thumb/crtn.o

.debug_abbrev   0x00000000     0x1216
 *(.debug_abbrev)
 .debug_abbrev  0x00000000       0x12 c:/nds/devkitarm/bin/../lib/gcc/arm-eabi/4.3.0/thumb/crti.o
 .debug_abbrev  0x00000012      0x18a main.o
 .debug_abbrev  0x0000019c      0x197 reboot.o
 .debug_abbrev  0x00000333      0x20c spi_driver.o
 .debug_abbrev  0x0000053f      0x361 uart.o
 .debug_abbrev  0x000008a0      0x34c c:/nds/libnds/lib\libnds9.a(console.o)
 .debug_abbrev  0x00000bec      0x1a5 c:/nds/libnds/lib\libnds9.a(initSystem.o)
 .debug_abbrev  0x00000d91      0x173 c:/nds/libnds/lib\libnds9.a(keys.o)
 .debug_abbrev  0x00000f04      0x10c c:/nds/libnds/lib\libnds9.a(touch.o)
 .debug_abbrev  0x00001010       0xbf c:/nds/libnds/lib\libnds9.a(video.o)
 .debug_abbrev  0x000010cf      0x135 c:/nds/libnds/lib\libnds9.a(interrupts.o)
 .debug_abbrev  0x00001204       0x12 c:/nds/devkitarm/bin/../lib/gcc/arm-eabi/4.3.0/thumb/crtn.o

.debug_line     0x00000000     0x148a
 *(.debug_line)
 .debug_line    0x00000000       0x49 c:/nds/devkitarm/bin/../lib/gcc/arm-eabi/4.3.0/thumb/crti.o
 .debug_line    0x00000049      0x1cb main.o
 .debug_line    0x00000214      0x1d4 reboot.o
 .debug_line    0x000003e8      0x181 spi_driver.o
 .debug_line    0x00000569      0x40c uart.o
 .debug_line    0x00000975      0x3a2 c:/nds/libnds/lib\libnds9.a(console.o)
 .debug_line    0x00000d17      0x20b c:/nds/libnds/lib\libnds9.a(initSystem.o)
 .debug_line    0x00000f22      0x12b c:/nds/libnds/lib\libnds9.a(keys.o)
 .debug_line    0x0000104d      0x103 c:/nds/libnds/lib\libnds9.a(touch.o)
 .debug_line    0x00001150      0x15e c:/nds/libnds/lib\libnds9.a(video.o)
 .debug_line    0x000012ae      0x15d c:/nds/libnds/lib\libnds9.a(interrupts.o)
 .debug_line    0x0000140b       0x7f c:/nds/devkitarm/bin/../lib/gcc/arm-eabi/4.3.0/thumb/crtn.o

.debug_frame    0x00000000      0x700
 *(.debug_frame)
 .debug_frame   0x00000000       0x3c main.o
 .debug_frame   0x0000003c       0x40 reboot.o
 .debug_frame   0x0000007c       0xb8 spi_driver.o
 .debug_frame   0x00000134      0x268 uart.o
 .debug_frame   0x0000039c      0x108 c:/nds/libnds/lib\libnds9.a(console.o)
 .debug_frame   0x000004a4       0x28 c:/nds/libnds/lib\libnds9.a(initSystem.o)
 .debug_frame   0x000004cc       0x80 c:/nds/libnds/lib\libnds9.a(keys.o)
 .debug_frame   0x0000054c       0x28 c:/nds/libnds/lib\libnds9.a(touch.o)
 .debug_frame   0x00000574       0xdc c:/nds/libnds/lib\libnds9.a(video.o)
 .debug_frame   0x00000650       0xb0 c:/nds/libnds/lib\libnds9.a(interrupts.o)

.debug_str      0x00000000     0x1ac0
 *(.debug_str)
 .debug_str     0x00000000      0x4f1 main.o
                                0x53d (size before relaxing)
 .debug_str     0x000004f1      0x14a reboot.o
                                0x3e8 (size before relaxing)
 .debug_str     0x0000063b      0x1aa spi_driver.o
                                0x31e (size before relaxing)
 .debug_str     0x000007e5      0x216 uart.o
                                0x529 (size before relaxing)
 .debug_str     0x000009fb      0x600 c:/nds/libnds/lib\libnds9.a(console.o)
                                0x7f8 (size before relaxing)
 .debug_str     0x00000ffb      0x17b c:/nds/libnds/lib\libnds9.a(initSystem.o)
                                0x2f6 (size before relaxing)
 .debug_str     0x00001176       0xa0 c:/nds/libnds/lib\libnds9.a(keys.o)
                                0x312 (size before relaxing)
 .debug_str     0x00001216       0x46 c:/nds/libnds/lib\libnds9.a(touch.o)
                                0x2c1 (size before relaxing)
 .debug_str     0x0000125c      0x7a1 c:/nds/libnds/lib\libnds9.a(video.o)
                                0xa1e (size before relaxing)
 .debug_str     0x000019fd       0xc3 c:/nds/libnds/lib\libnds9.a(interrupts.o)
                                0x1b4 (size before relaxing)

.debug_loc      0x00000000     0x12e0
 *(.debug_loc)
 .debug_loc     0x00000000       0x71 main.o
 .debug_loc     0x00000071       0x7d reboot.o
 .debug_loc     0x000000ee      0x178 spi_driver.o
 .debug_loc     0x00000266      0x62b uart.o
 .debug_loc     0x00000891      0x762 c:/nds/libnds/lib\libnds9.a(console.o)
 .debug_loc     0x00000ff3       0x32 c:/nds/libnds/lib\libnds9.a(initSystem.o)
 .debug_loc     0x00001025       0x3e c:/nds/libnds/lib\libnds9.a(keys.o)
 .debug_loc     0x00001063       0x1f c:/nds/libnds/lib\libnds9.a(touch.o)
 .debug_loc     0x00001082      0x129 c:/nds/libnds/lib\libnds9.a(video.o)
 .debug_loc     0x000011ab      0x135 c:/nds/libnds/lib\libnds9.a(interrupts.o)

.debug_macinfo
 *(.debug_macinfo)

.debug_weaknames
 *(.debug_weaknames)

.debug_funcnames
 *(.debug_funcnames)

.debug_typenames
 *(.debug_typenames)

.debug_varnames
 *(.debug_varnames)

.stack          0x00080000        0x0
                0x00080000                _stack = .
 *(.stack)
LOAD c:/nds/devkitarm/bin/../lib/gcc/arm-eabi/4.3.0/../../../../arm-eabi/lib/thumb/ds_arm9_crt0.o
LOAD c:/nds/devkitarm/bin/../lib/gcc/arm-eabi/4.3.0/thumb/crti.o
LOAD c:/nds/devkitarm/bin/../lib/gcc/arm-eabi/4.3.0/thumb/crtbegin.o
LOAD main.o
LOAD reboot.o
LOAD spi_driver.o
LOAD uart.o
LOAD c:/nds/libnds/lib\libnds9.a
START GROUP
LOAD c:/nds/devkitarm/bin/../lib/gcc/arm-eabi/4.3.0/thumb\libgcc.a
LOAD c:/nds/devkitarm/bin/../lib/gcc/arm-eabi/4.3.0/../../../../arm-eabi/lib/thumb\libg.a
LOAD c:/nds/devkitarm/bin/../lib/gcc/arm-eabi/4.3.0/../../../../arm-eabi/lib/thumb\libc.a
LOAD c:/nds/devkitarm/bin/../lib/gcc/arm-eabi/4.3.0/../../../../arm-eabi/lib/thumb\libsysbase.a
END GROUP
LOAD c:/nds/devkitarm/bin/../lib/gcc/arm-eabi/4.3.0/thumb/crtend.o
LOAD c:/nds/devkitarm/bin/../lib/gcc/arm-eabi/4.3.0/thumb/crtn.o
OUTPUT(d:/Desktop/as/asd/libDSUart/arm9/libDSUart.arm9.elf elf32-littlearm)

.ARM.attributes
                0x00000000       0x2f
 .ARM.attributes
                0x00000000       0x1f c:/nds/devkitarm/bin/../lib/gcc/arm-eabi/4.3.0/../../../../arm-eabi/lib/thumb/ds_arm9_crt0.o
 .ARM.attributes
                0x0000001f       0x1e c:/nds/devkitarm/bin/../lib/gcc/arm-eabi/4.3.0/thumb/crti.o
 .ARM.attributes
                0x0000003d       0x2e c:/nds/devkitarm/bin/../lib/gcc/arm-eabi/4.3.0/thumb/crtbegin.o
 .ARM.attributes
                0x0000006b       0x25 main.o
 .ARM.attributes
                0x00000090       0x25 reboot.o
 .ARM.attributes
                0x000000b5       0x25 spi_driver.o
 .ARM.attributes
                0x000000da       0x25 uart.o
 .ARM.attributes
                0x000000ff       0x19 c:/nds/libnds/lib\libnds9.a(console.o)
 .ARM.attributes
                0x00000118       0x19 c:/nds/libnds/lib\libnds9.a(initSystem.o)
 .ARM.attributes
                0x00000131       0x19 c:/nds/libnds/lib\libnds9.a(keys.o)
 .ARM.attributes
                0x0000014a       0x19 c:/nds/libnds/lib\libnds9.a(touch.o)
 .ARM.attributes
                0x00000163       0x19 c:/nds/libnds/lib\libnds9.a(video.o)
 .ARM.attributes
                0x0000017c       0x19 c:/nds/libnds/lib\libnds9.a(interrupts.o)
 .ARM.attributes
                0x00000195       0x19 c:/nds/libnds/lib\libnds9.a(biosCalls.o)
 .ARM.attributes
                0x000001ae       0x19 c:/nds/libnds/lib\libnds9.a(interruptDispatcher.o)
 .ARM.attributes
                0x000001c7       0x10 c:/nds/libnds/lib\libnds9.a(default_font.o)
 .ARM.attributes
                0x000001d7       0x2c c:/nds/devkitarm/bin/../lib/gcc/arm-eabi/4.3.0/../../../../arm-eabi/lib/thumb\libg.a(lib_a-impure.o)
 .ARM.attributes
                0x00000203       0x2e c:/nds/devkitarm/bin/../lib/gcc/arm-eabi/4.3.0/../../../../arm-eabi/lib/thumb\libg.a(lib_a-init.o)
 .ARM.attributes
                0x00000231       0x2e c:/nds/devkitarm/bin/../lib/gcc/arm-eabi/4.3.0/../../../../arm-eabi/lib/thumb\libg.a(lib_a-iprintf.o)
 .ARM.attributes
                0x0000025f       0x2e c:/nds/devkitarm/bin/../lib/gcc/arm-eabi/4.3.0/../../../../arm-eabi/lib/thumb\libg.a(lib_a-memcpy.o)
 .ARM.attributes
                0x0000028d       0x2e c:/nds/devkitarm/bin/../lib/gcc/arm-eabi/4.3.0/../../../../arm-eabi/lib/thumb\libg.a(lib_a-memmove.o)
 .ARM.attributes
                0x000002bb       0x2e c:/nds/devkitarm/bin/../lib/gcc/arm-eabi/4.3.0/../../../../arm-eabi/lib/thumb\libg.a(lib_a-setvbuf.o)
 .ARM.attributes
                0x000002e9       0x2e c:/nds/devkitarm/bin/../lib/gcc/arm-eabi/4.3.0/../../../../arm-eabi/lib/thumb\libg.a(lib_a-siscanf.o)
 .ARM.attributes
                0x00000317       0x2e c:/nds/devkitarm/bin/../lib/gcc/arm-eabi/4.3.0/../../../../arm-eabi/lib/thumb\libg.a(lib_a-strlen.o)
 .ARM.attributes
                0x00000345       0x2e c:/nds/devkitarm/bin/../lib/gcc/arm-eabi/4.3.0/../../../../arm-eabi/lib/thumb\libg.a(lib_a-sysstat.o)
 .ARM.attributes
                0x00000373       0x2e c:/nds/devkitarm/bin/../lib/gcc/arm-eabi/4.3.0/../../../../arm-eabi/lib/thumb\libg.a(lib_a-vfiprintf.o)
 .ARM.attributes
                0x000003a1       0x2e c:/nds/devkitarm/bin/../lib/gcc/arm-eabi/4.3.0/../../../../arm-eabi/lib/thumb\libg.a(lib_a-vfiscanf.o)
 .ARM.attributes
                0x000003cf       0x2e c:/nds/devkitarm/bin/../lib/gcc/arm-eabi/4.3.0/../../../../arm-eabi/lib/thumb\libg.a(lib_a-wcrtomb.o)
 .ARM.attributes
                0x000003fd       0x2e c:/nds/devkitarm/bin/../lib/gcc/arm-eabi/4.3.0/../../../../arm-eabi/lib/thumb\libg.a(lib_a-wcsrtombs.o)
 .ARM.attributes
                0x0000042b       0x2e c:/nds/devkitarm/bin/../lib/gcc/arm-eabi/4.3.0/../../../../arm-eabi/lib/thumb\libg.a(lib_a-wctomb_r.o)
 .ARM.attributes
                0x00000459       0x2e c:/nds/devkitarm/bin/../lib/gcc/arm-eabi/4.3.0/../../../../arm-eabi/lib/thumb\libg.a(lib_a-wsetup.o)
 .ARM.attributes
                0x00000487       0x2c c:/nds/devkitarm/bin/../lib/gcc/arm-eabi/4.3.0/../../../../arm-eabi/lib/thumb\libg.a(lib_a-ctype_.o)
 .ARM.attributes
                0x000004b3       0x2e c:/nds/devkitarm/bin/../lib/gcc/arm-eabi/4.3.0/../../../../arm-eabi/lib/thumb\libg.a(lib_a-fflush.o)
 .ARM.attributes
                0x000004e1       0x2e c:/nds/devkitarm/bin/../lib/gcc/arm-eabi/4.3.0/../../../../arm-eabi/lib/thumb\libg.a(lib_a-findfp.o)
 .ARM.attributes
                0x0000050f       0x2e c:/nds/devkitarm/bin/../lib/gcc/arm-eabi/4.3.0/../../../../arm-eabi/lib/thumb\libg.a(lib_a-fread.o)
 .ARM.attributes
                0x0000053d       0x2e c:/nds/devkitarm/bin/../lib/gcc/arm-eabi/4.3.0/../../../../arm-eabi/lib/thumb\libg.a(lib_a-freer.o)
 .ARM.attributes
                0x0000056b       0x2e c:/nds/devkitarm/bin/../lib/gcc/arm-eabi/4.3.0/../../../../arm-eabi/lib/thumb\libg.a(lib_a-fvwrite.o)
 .ARM.attributes
                0x00000599       0x2e c:/nds/devkitarm/bin/../lib/gcc/arm-eabi/4.3.0/../../../../arm-eabi/lib/thumb\libg.a(lib_a-fwalk.o)
 .ARM.attributes
                0x000005c7       0x2e c:/nds/devkitarm/bin/../lib/gcc/arm-eabi/4.3.0/../../../../arm-eabi/lib/thumb\libg.a(lib_a-iswspace.o)
 .ARM.attributes
                0x000005f5       0x2e c:/nds/devkitarm/bin/../lib/gcc/arm-eabi/4.3.0/../../../../arm-eabi/lib/thumb\libg.a(lib_a-jp2uc.o)
 .ARM.attributes
                0x00000623       0x2e c:/nds/devkitarm/bin/../lib/gcc/arm-eabi/4.3.0/../../../../arm-eabi/lib/thumb\libg.a(lib_a-locale.o)
 .ARM.attributes
                0x00000651       0x2e c:/nds/devkitarm/bin/../lib/gcc/arm-eabi/4.3.0/../../../../arm-eabi/lib/thumb\libg.a(lib_a-makebuf.o)
 .ARM.attributes
                0x0000067f       0x2e c:/nds/devkitarm/bin/../lib/gcc/arm-eabi/4.3.0/../../../../arm-eabi/lib/thumb\libg.a(lib_a-malloc.o)
 .ARM.attributes
                0x000006ad       0x2e c:/nds/devkitarm/bin/../lib/gcc/arm-eabi/4.3.0/../../../../arm-eabi/lib/thumb\libg.a(lib_a-mallocr.o)
 .ARM.attributes
                0x000006db       0x2e c:/nds/devkitarm/bin/../lib/gcc/arm-eabi/4.3.0/../../../../arm-eabi/lib/thumb\libg.a(lib_a-mbrtowc.o)
 .ARM.attributes
                0x00000709       0x2e c:/nds/devkitarm/bin/../lib/gcc/arm-eabi/4.3.0/../../../../arm-eabi/lib/thumb\libg.a(lib_a-mbtowc_r.o)
 .ARM.attributes
                0x00000737       0x2e c:/nds/devkitarm/bin/../lib/gcc/arm-eabi/4.3.0/../../../../arm-eabi/lib/thumb\libg.a(lib_a-memchr.o)
 .ARM.attributes
                0x00000765       0x2e c:/nds/devkitarm/bin/../lib/gcc/arm-eabi/4.3.0/../../../../arm-eabi/lib/thumb\libg.a(lib_a-memset.o)
 .ARM.attributes
                0x00000793       0x2e c:/nds/devkitarm/bin/../lib/gcc/arm-eabi/4.3.0/../../../../arm-eabi/lib/thumb\libg.a(lib_a-mlock.o)
 .ARM.attributes
                0x000007c1       0x2e c:/nds/devkitarm/bin/../lib/gcc/arm-eabi/4.3.0/../../../../arm-eabi/lib/thumb\libg.a(lib_a-reallocr.o)
 .ARM.attributes
                0x000007ef       0x2e c:/nds/devkitarm/bin/../lib/gcc/arm-eabi/4.3.0/../../../../arm-eabi/lib/thumb\libg.a(lib_a-refill.o)
 .ARM.attributes
                0x0000081d       0x2e c:/nds/devkitarm/bin/../lib/gcc/arm-eabi/4.3.0/../../../../arm-eabi/lib/thumb\libg.a(lib_a-sccl.o)
 .ARM.attributes
                0x0000084b       0x2e c:/nds/devkitarm/bin/../lib/gcc/arm-eabi/4.3.0/../../../../arm-eabi/lib/thumb\libg.a(lib_a-stdio.o)
 .ARM.attributes
                0x00000879       0x2e c:/nds/devkitarm/bin/../lib/gcc/arm-eabi/4.3.0/../../../../arm-eabi/lib/thumb\libg.a(lib_a-strcmp.o)
 .ARM.attributes
                0x000008a7       0x2e c:/nds/devkitarm/bin/../lib/gcc/arm-eabi/4.3.0/../../../../arm-eabi/lib/thumb\libg.a(lib_a-strcpy.o)
 .ARM.attributes
                0x000008d5       0x2e c:/nds/devkitarm/bin/../lib/gcc/arm-eabi/4.3.0/../../../../arm-eabi/lib/thumb\libg.a(lib_a-strtol.o)
 .ARM.attributes
                0x00000903       0x2e c:/nds/devkitarm/bin/../lib/gcc/arm-eabi/4.3.0/../../../../arm-eabi/lib/thumb\libg.a(lib_a-strtoul.o)
 .ARM.attributes
                0x00000931       0x2e c:/nds/devkitarm/bin/../lib/gcc/arm-eabi/4.3.0/../../../../arm-eabi/lib/thumb\libg.a(lib_a-ungetc.o)
 .ARM.attributes
                0x0000095f       0x2e c:/nds/devkitarm/bin/../lib/gcc/arm-eabi/4.3.0/../../../../arm-eabi/lib/thumb\libg.a(lib_a-fclose.o)
 .ARM.attributes
                0x0000098d       0x2e c:/nds/devkitarm/bin/../lib/gcc/arm-eabi/4.3.0/../../../../arm-eabi/lib/thumb\libsysbase.a(iosupport.o)
 .ARM.attributes
                0x000009bb       0x2e c:/nds/devkitarm/bin/../lib/gcc/arm-eabi/4.3.0/../../../../arm-eabi/lib/thumb\libsysbase.a(close.o)
 .ARM.attributes
                0x000009e9       0x2e c:/nds/devkitarm/bin/../lib/gcc/arm-eabi/4.3.0/../../../../arm-eabi/lib/thumb\libsysbase.a(fstat.o)
 .ARM.attributes
                0x00000a17       0x2e c:/nds/devkitarm/bin/../lib/gcc/arm-eabi/4.3.0/../../../../arm-eabi/lib/thumb\libsysbase.a(isatty.o)
 .ARM.attributes
                0x00000a45       0x2e c:/nds/devkitarm/bin/../lib/gcc/arm-eabi/4.3.0/../../../../arm-eabi/lib/thumb\libsysbase.a(lseek.o)
 .ARM.attributes
                0x00000a73       0x2e c:/nds/devkitarm/bin/../lib/gcc/arm-eabi/4.3.0/../../../../arm-eabi/lib/thumb\libsysbase.a(read.o)
 .ARM.attributes
                0x00000aa1       0x2e c:/nds/devkitarm/bin/../lib/gcc/arm-eabi/4.3.0/../../../../arm-eabi/lib/thumb\libsysbase.a(sbrk.o)
 .ARM.attributes
                0x00000acf       0x2e c:/nds/devkitarm/bin/../lib/gcc/arm-eabi/4.3.0/../../../../arm-eabi/lib/thumb\libsysbase.a(stat.o)
 .ARM.attributes
                0x00000afd       0x2e c:/nds/devkitarm/bin/../lib/gcc/arm-eabi/4.3.0/../../../../arm-eabi/lib/thumb\libsysbase.a(times.o)
 .ARM.attributes
                0x00000b2b       0x2e c:/nds/devkitarm/bin/../lib/gcc/arm-eabi/4.3.0/../../../../arm-eabi/lib/thumb\libsysbase.a(write.o)
 .ARM.attributes
                0x00000b59       0x2c c:/nds/devkitarm/bin/../lib/gcc/arm-eabi/4.3.0/../../../../arm-eabi/lib/thumb\libsysbase.a(malloc_vars.o)
 .ARM.attributes
                0x00000b85       0x2e c:/nds/devkitarm/bin/../lib/gcc/arm-eabi/4.3.0/../../../../arm-eabi/lib/thumb\libsysbase.a(build_argv.o)
 .ARM.attributes
                0x00000bb3       0x1e c:/nds/devkitarm/bin/../lib/gcc/arm-eabi/4.3.0/thumb\libgcc.a(_udivsi3.o)
 .ARM.attributes
                0x00000bd1       0x1e c:/nds/devkitarm/bin/../lib/gcc/arm-eabi/4.3.0/thumb\libgcc.a(_dvmd_tls.o)
 .ARM.attributes
                0x00000bef       0x2e c:/nds/devkitarm/bin/../lib/gcc/arm-eabi/4.3.0/../../../../arm-eabi/lib/thumb\libg.a(lib_a-errno.o)
 .ARM.attributes
                0x00000c1d       0x2e c:/nds/devkitarm/bin/../lib/gcc/arm-eabi/4.3.0/../../../../arm-eabi/lib/thumb\libg.a(lib_a-strncmp.o)
 .ARM.attributes
                0x00000c4b       0x2c c:/nds/devkitarm/bin/../lib/gcc/arm-eabi/4.3.0/thumb/crtend.o
 .ARM.attributes
                0x00000c77       0x1e c:/nds/devkitarm/bin/../lib/gcc/arm-eabi/4.3.0/thumb/crtn.o

.debug_ranges   0x00000000      0x4d0
 .debug_ranges  0x00000000       0x20 c:/nds/devkitarm/bin/../lib/gcc/arm-eabi/4.3.0/thumb/crti.o
 .debug_ranges  0x00000020       0x38 main.o
 .debug_ranges  0x00000058       0x30 reboot.o
 .debug_ranges  0x00000088       0x50 spi_driver.o
 .debug_ranges  0x000000d8      0x320 uart.o
 .debug_ranges  0x000003f8       0x88 c:/nds/libnds/lib\libnds9.a(console.o)
 .debug_ranges  0x00000480       0x30 c:/nds/libnds/lib\libnds9.a(initSystem.o)
 .debug_ranges  0x000004b0       0x20 c:/nds/devkitarm/bin/../lib/gcc/arm-eabi/4.3.0/thumb/crtn.o
