Archive member included because of file (symbol)

c:/nds/libnds/lib\libdswifi7.a(wifi_arm7.o)
                              template.o (installWifiFIFO)
c:/nds/libnds/lib\libdswifi7.a(spinlock.o)
                              c:/nds/libnds/lib\libdswifi7.a(wifi_arm7.o) (SLasm_Acquire)
c:/nds/libnds/lib\libmm7.a(mm_main.o)
                              template.o (mmInstall)
c:/nds/libnds/lib\libmm7.a(mm_mas.o)
                              c:/nds/libnds/lib\libmm7.a(mm_main.o) (mm_achannels)
c:/nds/libnds/lib\libmm7.a(mm_mas_arm.o)
                              c:/nds/libnds/lib\libmm7.a(mm_mas.o) (mmAllocChannel)
c:/nds/libnds/lib\libmm7.a(mm_comms7.o)
                              c:/nds/libnds/lib\libmm7.a(mm_main.o) (mmSetupComms)
c:/nds/libnds/lib\libmm7.a(mm_mixer_super.o)
                              c:/nds/libnds/lib\libmm7.a(mm_main.o) (mm_mix_channels)
c:/nds/libnds/lib\libmm7.a(mm_reverb.o)
                              c:/nds/libnds/lib\libmm7.a(mm_comms7.o) (mmReverbEnable)
c:/nds/libnds/lib\libmm7.a(mm_stream.o)
                              c:/nds/libnds/lib\libmm7.a(mm_comms7.o) (mmStreamBegin)
c:/nds/libnds/lib\libmm7.a(mm_effect.o)
                              c:/nds/libnds/lib\libmm7.a(mm_comms7.o) (mm_sfx_bitmask)
c:/nds/libnds/lib\libnds7.a(audio.o)
                              template.o (installSoundFIFO)
c:/nds/libnds/lib\libnds7.a(clock.o)
                              template.o (initClockIRQ)
c:/nds/libnds/lib\libnds7.a(input.o)
                              template.o (inputGetAndSend)
c:/nds/libnds/lib\libnds7.a(microphone.o)
                              c:/nds/libnds/lib\libnds7.a(audio.o) (micStopRecording)
c:/nds/libnds/lib\libnds7.a(system.o)
                              template.o (installSystemFIFO)
c:/nds/libnds/lib\libnds7.a(touch.o)
                              c:/nds/libnds/lib\libnds7.a(input.o) (touchReadXY)
c:/nds/libnds/lib\libnds7.a(userSettings.o)
                              template.o (readUserSettings)
c:/nds/libnds/lib\libnds7.a(fifosystem.o)
                              c:/nds/libnds/lib\libdswifi7.a(wifi_arm7.o) (fifoSetAddressHandler)
c:/nds/libnds/lib\libnds7.a(interrupts.o)
                              template.o (irqSet)
c:/nds/libnds/lib\libnds7.a(biosCalls.o)
                              c:/nds/libnds/lib\libdswifi7.a(wifi_arm7.o) (swiDelay)
c:/nds/libnds/lib\libnds7.a(interruptDispatcher.o)
                              c:/nds/libnds/lib\libnds7.a(interrupts.o) (IntrMain)
c:/nds/libnds/lib\libnds7.a(spi.o)
                              c:/nds/libnds/lib\libnds7.a(system.o) (writePowerManagement)
c:/nds/devkitarm/bin/../lib/gcc/arm-eabi/4.3.2\libgcc.a(_divsi3.o)
                              c:/nds/libnds/lib\libnds7.a(audio.o) (__aeabi_idiv)
c:/nds/devkitarm/bin/../lib/gcc/arm-eabi/4.3.2\libgcc.a(_dvmd_tls.o)
                              c:/nds/devkitarm/bin/../lib/gcc/arm-eabi/4.3.2\libgcc.a(_divsi3.o) (__div0)
c:/nds/devkitarm/bin/../lib/gcc/arm-eabi/4.3.2\libgcc.a(_call_via_rX.o)
                              c:/nds/libnds/lib\libmm7.a(mm_comms7.o) (_call_via_r1)
c:/nds/devkitarm/bin/../lib/gcc/arm-eabi/4.3.2/../../../../arm-eabi/lib\libg.a(lib_a-init.o)
                              c:/nds/devkitarm/bin/../lib/gcc/arm-eabi/4.3.2/../../../../arm-eabi/lib/ds_arm7_crt0.o (__libc_init_array)
c:/nds/devkitarm/bin/../lib/gcc/arm-eabi/4.3.2/../../../../arm-eabi/lib\libg.a(lib_a-memcpy.o)
                              c:/nds/libnds/lib\libnds7.a(input.o) (memcpy)

Allocating common symbols
Common symbol       size              file

fifo_datamsg_data   0x40              c:/nds/libnds/lib\libnds7.a(fifosystem.o)
arm7q               0x800             c:/nds/libnds/lib\libdswifi7.a(wifi_arm7.o)
fifo_buffer         0x800             c:/nds/libnds/lib\libnds7.a(fifosystem.o)
fifo_value32_func   0x40              c:/nds/libnds/lib\libnds7.a(fifosystem.o)
fifo_address_func   0x40              c:/nds/libnds/lib\libnds7.a(fifosystem.o)
fifo_freelist_start
                    0x4               c:/nds/libnds/lib\libnds7.a(fifosystem.o)
fifo_value32_data   0x40              c:/nds/libnds/lib\libnds7.a(fifosystem.o)
FlashData           0x200             c:/nds/libnds/lib\libdswifi7.a(wifi_arm7.o)
Keys                0x1               c:/nds/libnds/lib\libnds7.a(input.o)
irqTable            0xc8              c:/nds/libnds/lib\libnds7.a(interrupts.o)
fifo_sendwords_end  0x4               c:/nds/libnds/lib\libnds7.a(fifosystem.o)
fifo_rcvdwords_start
                    0x4               c:/nds/libnds/lib\libnds7.a(fifosystem.o)
fifo_channel_start  0x40              c:/nds/libnds/lib\libnds7.a(fifosystem.o)
fifo_sendwords_start
                    0x4               c:/nds/libnds/lib\libnds7.a(fifosystem.o)
fifo_address_data   0x40              c:/nds/libnds/lib\libnds7.a(fifosystem.o)
fifo_channel_end    0x40              c:/nds/libnds/lib\libnds7.a(fifosystem.o)
fifo_rcvdwords_end  0x4               c:/nds/libnds/lib\libnds7.a(fifosystem.o)
fifo_datamsg_func   0x40              c:/nds/libnds/lib\libnds7.a(fifosystem.o)

Memory Configuration

Name             Origin             Length             Attributes
rom              0x08000000         0x02000000
iwram            0x037f8000         0x00018000
*default*        0x00000000         0xffffffff

Linker script and memory map

                0x037f8000                __iwram_start = 0x37f8000
                0x03810000                __iwram_top = 0x3810000
                0x0380ffa0                __sp_irq = (__iwram_top - 0x60)
                0x0380fea0                __sp_svc = (__sp_irq - 0x100)
                0x0380fda0                __sp_usr = (__sp_svc - 0x100)
                0x0380fff8                __irq_flags = (__iwram_top - 0x8)
                0x0380fffc                __irq_vector = (__iwram_top - 0x4)

.init           0x037f8000       0xe8
                0x037f8000                __text_start = .
 *(.init)
 .init          0x037f8000       0xd0 c:/nds/devkitarm/bin/../lib/gcc/arm-eabi/4.3.2/../../../../arm-eabi/lib/ds_arm7_crt0.o
                0x037f8000                _start
 .init          0x037f80d0        0xc c:/nds/devkitarm/bin/../lib/gcc/arm-eabi/4.3.2/crti.o
                0x037f80d0                _init
 .init          0x037f80dc        0xc c:/nds/devkitarm/bin/../lib/gcc/arm-eabi/4.3.2/crtn.o
                0x037f80e8                . = ALIGN (0x4)

.plt
 *(.plt)

.text           0x037f80f0     0xc350
 *(.text .stub .text.* .gnu.linkonce.t.*)
 .text.stub     0x037f80f0      0x138 linker stubs
 .text          0x037f8278        0x0 c:/nds/devkitarm/bin/../lib/gcc/arm-eabi/4.3.2/../../../../arm-eabi/lib/ds_arm7_crt0.o
 .text          0x037f8278        0x0 c:/nds/devkitarm/bin/../lib/gcc/arm-eabi/4.3.2/crti.o
 .text          0x037f8278       0x9c c:/nds/devkitarm/bin/../lib/gcc/arm-eabi/4.3.2/crtbegin.o
 .text          0x037f8314       0xa4 template.o
                0x037f83a0                VcountHandler
                0x037f8314                main
                0x037f8388                VblankHandler
 .text          0x037f83b8     0x3e94 c:/nds/libnds/lib\libdswifi7.a(wifi_arm7.o)
                0x037f95e0                Wifi_Intr_TBTT
                0x037f93f0                Wifi_TxCheck
                0x037f8a30                Wifi_RFInit
                0x037f84c0                InitFlashData
                0x037f88e0                Wifi_RFWrite
                0x037f8da0                Wifi_Shutdown
                0x037fa11c                Wifi_SetSyncHandler
                0x037f9cf8                Wifi_SendSharedKeyAuthPacket2
                0x037f940c                Wifi_Intr_CntOverflow
                0x037fb25c                Wifi_Interrupt
                0x037f9214                Wifi_CopyFirstTxData
                0x037f89c4                SetLedState
                0x037f8ebc                Wifi_MACRead
                0x037f8d44                Wifi_RxSetup
                0x037f84ec                ReadFlashBytes
                0x037f948c                Wifi_Intr_StartTx
                0x037f85fc                GetWfcSettings
                0x037fb3f0                Wifi_SetChannel
                0x037f99c0                Wifi_SetMode
                0x037f99a4                Wifi_SetBeaconPeriod
                0x037f9da0                Wifi_SendAssocPacket
                0x037fbf4c                Wifi_WakeUp
                0x037f8fe8                Wifi_MACWrite
                0x037fbff4                Wifi_Init
                0x037f9888                Wifi_Stop
                0x037f8ca8                Wifi_BBInit
                0x037f83b8                Read_Flash
                0x037f8e60                Wifi_CopyMacAddr
                0x037f8550                ReadFlashHWord
                0x037fbeec                Wifi_Sync
                0x037f95fc                erasemem
                0x037f9a4c                Wifi_TxQueue
                0x037f8d30                Wifi_TxSetup
                0x037f96a4                Wifi_Start
                0x037f90ac                Wifi_QueueRxMacData
                0x037f9fd0                Wifi_SendNullFrame
                0x037fa114                Wifi_CreateTxFrame
                0x037f8e7c                Wifi_CmpMacAddr
                0x037f98f4                Wifi_SetWepKey
                0x037f9c40                Wifi_SendOpenSystemAuthPacket
                0x037f937c                Wifi_TxRaw
                0x037f9c9c                Wifi_SendSharedKeyAuthPacket
                0x037f8cf4                Wifi_MacInit
                0x037f8850                Wifi_BBWrite
                0x037f9620                Wifi_Deinit
                0x037f9b50                Wifi_GenMgtHeader
                0x037f9a24                Wifi_DisableTempPowerSave
                0x037f8f1c                Wifi_MACCopy
                0x037fa1ac                Wifi_ProcessReceivedFrame
                0x037f8598                crc16_slow
                0x037fb77c                Wifi_Update
                0x037f95f8                Wifi_Intr_DoNothing
                0x037f99f0                Wifi_SetPreambleType
                0x037fa06c                Wifi_SendPSPollFrame
                0x037fa12c                installWifiFIFO
                0x037f84d4                ReadFlashByte
                0x037f94a0                Wifi_Intr_TxEnd
                0x037f8a14                ProxySetLedState
                0x037fb0ac                Wifi_Intr_RxEnd
                0x037f8800                Wifi_BBRead
                0x037f9958                Wifi_SetWepMode
                0x037f8924                PowerChip_ReadWrite
                0x037f91d0                Wifi_CheckTxBuf
 .text          0x037fc24c       0x5c c:/nds/libnds/lib\libdswifi7.a(spinlock.o)
                0x037fc24c                SLasm_Acquire
                0x037fc280                SLasm_Release
 .text          0x037fc2a8      0x1f8 c:/nds/libnds/lib\libmm7.a(mm_main.o)
                0x037fc2aa                mpp_call_r1
                0x037fc370                mmRestoreIRQ_t
                0x037fc354                mmSuspendIRQ_t
                0x037fc2b6                mmLockChannels
                0x037fc340                mmUnlockChannels
                0x037fc418                mmGetSoundBank
                0x037fc2a8                mpp_call_r7
                0x037fc2ac                mpp_call_r2
                0x037fc2b0                mmSetEventHandler
                0x037fc3f8                mmInstall
                0x037fc424                mmFrame
                0x037fc396                mmInit7
                0x037fc390                mmIsInitialized
                0x037fc2ae                mpp_call_r3
 .text          0x037fc4a0     0x1b54 c:/nds/libnds/lib\libmm7.a(mm_mas.o)
                0x037fc6f4                mmSetModulePitch
                0x037fc624                mmPause
                0x037fc656                mmActiveSub
                0x037fc66c                mmSetJingleVolume
                0x037fc546                mmStart
                0x037fc4f0                mm_reset_channels
                0x037fcb30                mpp_Update_ACHN_notest
                0x037fca28                mpp_Channel_NewNote
                0x037fc55a                mmJingle
                0x037fc640                mmResume
                0x037fc560                mmPlayModule
                0x037fc734                mmSetResolution
                0x037fc6c2                mmSetModuleTempo
                0x037fd166                mpp_Process_Effect
                0x037fc65c                mmSetModuleVolume
                0x037fc8ac                mppProcessTick
                0x037fc650                mmActive
                0x037fcf2e                mpp_Process_VolumeCommand
                0x037fdcd4                IT_PitchTable
                0x037fc6a8                mmPosition
                0x037fc764                mmStop
                0x037fd8b4                ST3_FREQTABLE
                0x037fc84c                mmPulse
 .text          0x037fdff4      0x644 c:/nds/libnds/lib\libmm7.a(mm_mas_arm.o)
                0x037fe394                mmUpdateChannel_TN
                0x037fe592                note_table_mod
                0x037fdff4                mmAllocChannel
                0x037fe574                note_table_oct
                0x037fe530                mmGetPeriod
                0x037fe068                mmReadPattern
                0x037fe154                mmUpdateChannel_T0
 .text          0x037fe638      0x7e4 c:/nds/libnds/lib\libmm7.a(mm_comms7.o)
                0x037fe638                mmSetupComms
                0x037fe7c4                mmProcessComms
                0x037fe758                mmSendUpdateToARM9
                0x037fe784                mmARM9msg
 .text          0x037fee1c     0x1688 c:/nds/libnds/lib\libmm7.a(mm_mixer_super.o)
                0x038002b2                mmSelectMode
                0x03800248                mmMixerSetFreq
                0x037ffabc                mmVolumeTable
                0x03800296                mmMixerSetVolume
                0x0380029e                mmMixerSetPan
                0x03800282                mmMixerStopChannel
                0x038002b0                mmMixerInit
                0x037fef70                mmMixerMix
                0x037fee9c                mmMixerPre
                0x0380028c                mmMixerChannelActive
                0x03800268                mmMixerMulFreq
                0x03800232                mmMixerSetSource
 .text          0x038004a4      0x280 c:/nds/libnds/lib\libmm7.a(mm_reverb.o)
                0x038006b0                mmReverbStop
                0x038004a4                mmReverbEnable
                0x03800668                mmReverbStart
                0x03800506                mmReverbConfigure
                0x038004c2                mmReverbDisable
 .text          0x03800724      0x400 c:/nds/libnds/lib\libmm7.a(mm_stream.o)
                0x03800ad2                mmStreamEnd
                0x038007fe                mmStreamUpdate
                0x03800a14                mmStreamClose
                0x03800a3c                mmStreamBegin
                0x03800724                mmStreamOpen
 .text          0x03800b24      0x300 c:/nds/libnds/lib\libmm7.a(mm_effect.o)
                0x03800c90                mmEffectVolume
                0x03800d48                mmSetEffectsVolume
                0x03800cd4                mmEffectCancel
                0x03800cc0                mmEffectRate
                0x03800b50                mmEffect
                0x03800d0e                mmEffectRelease
                0x03800cac                mmEffectPanning
                0x03800d96                mmUpdateEffects
                0x03800b66                mmEffectEx
                0x03800d56                mmEffectCancelAll
                0x03800d34                mmEffectScaleRate
                0x03800b24                mmResetEffects
 .text          0x03800e24      0x338 c:/nds/libnds/lib\libnds7.a(audio.o)
                0x03800e98                installSoundFIFO
                0x03800e48                getFreePSGChannel
                0x03800ec0                soundCommandHandler
                0x0380113c                micSwapHandler
                0x03800e24                getFreeChannel
                0x03800e6c                getFreeNoiseChannel
                0x03800fd8                soundDataHandler
 .text          0x0380115c      0x488 c:/nds/libnds/lib\libnds7.a(clock.o)
                0x0380115c                BCDToInteger
                0x038012d0                rtcSetTime
                0x038012f8                rtcGetTime
                0x03801430                initClockIRQ
                0x038015a4                integerToBCD
                0x03801188                syncRTC
                0x03801358                rtcSetTimeAndDate
                0x038013ec                rtcReset
                0x03801198                rtcTransaction
                0x0380138c                rtcGetTimeAndDate
 .text          0x038015e4       0xc0 c:/nds/libnds/lib\libnds7.a(input.o)
                0x038015e4                inputGetAndSend
 .text          0x038016a4      0x3c8 c:/nds/libnds/lib\libnds7.a(microphone.o)
                0x03801760                micReadData8
                0x038019cc                micStartRecording
                0x038016a4                micReadData12
                0x038018a8                micSetAmp
                0x03801818                micTimerHandler
                0x03801950                micStopRecording
 .text          0x03801a6c      0x13c c:/nds/libnds/lib\libnds7.a(system.o)
                0x03801a78                installSystemFIFO
                0x03801ab0                powerValueHandler
                0x03801a6c                sleepEnabled
                0x03801a90                systemSleep
 .text          0x03801ba8      0x778 c:/nds/libnds/lib\libnds7.a(touch.o)
                0x03801f24                CheckStylus
                0x03801e30                touchRead
                0x03801c28                readTouchValue
                0x03801ef0                touchReadTemperature
                0x03802054                touchReadXY
                0x03801ba8                UpdateRange
 .text          0x03802320       0xec c:/nds/libnds/lib\libnds7.a(userSettings.o)
                0x03802320                readUserSettings
 .text          0x0380240c     0x1908 c:/nds/libnds/lib\libnds7.a(fifosystem.o)
                0x038033cc                fifoInternalRecvPopFirst
                0x03802498                fifoCheckValue32
                0x038025b0                fifoCheckDatamsgLength
                0x03802dc8                fifoGetLostWordCount
                0x03802d38                fifoGetBufferUsage
                0x03803aa8                fifoSendValue32
                0x038039b0                fifoInternalSend
                0x03802a98                fifoGetDatamsg
                0x038028a8                fifoGetValue32
                0x038026b8                fifoGetAddress
                0x03802644                fifoCountDatamsg
                0x038029f4                fifoForceValue32Handler
                0x03802524                fifoCheckDatamsg
                0x03803368                fifoInternalRecvPeek
                0x038038cc                fifoInternalAllocFreeBlock
                0x0380287c                fifoSetAddressHandler
                0x03803324                fifoInternalProtect
                0x03802c70                fifoForceDatamsgHandler
                0x038037dc                fifoInternalSendEnqueue
                0x03803a4c                fifoSendDatamsg
                0x03803610                fifoInternalSendEmpty
                0x0380375c                fifoInternalSendInterrupt
                0x03803af4                fifoSendAddress
                0x03803620                fifoInternalSendDeque
                0x03802dd4                fifoInternalRecvInterrupt
                0x0380240c                fifoCheckAddress
                0x03803920                fifoInternalFreeCheck
                0x0380349c                fifoInternalRecvWordCount
                0x03803520                fifoInternalRecvPushBack
                0x03803344                fifoInternalUnprotect
                0x03802804                fifoForceAddressHandler
                0x03802a6c                fifoSetValue32Handler
                0x038036f0                fifoInternalBeginSend
                0x03803b34                fifoInit
                0x03802d0c                fifoSetDatamsgHandler
                0x038038fc                fifoInternalFreeBlock
 .text          0x03803d14      0x1b8 c:/nds/libnds/lib\libnds7.a(interrupts.o)
                0x03803e00                irqEnable
                0x03803d18                irqSet
                0x03803e4c                irqDisable
                0x03803d7c                irqInit
                0x03803d14                irqDummy
                0x03803dcc                irqInitHandler
                0x03803e98                irqClear
 *fill*         0x03803ecc        0x4 ff
 .text          0x03803ed0       0x60 c:/nds/libnds/lib\libnds7.a(biosCalls.o)
                0x03803ee0                swiSleep
                0x03803f1a                swiDecompressLZSSVram
                0x03803f02                swiFastCopy
                0x03803f06                swiSqrt
                0x03803ed0                swiSoftReset
                0x03803f0a                swiCRC16
                0x03803f1e                swiDecompressHuffman
                0x03803eec                swiRemainder
                0x03803f12                swiUnpackBits
                0x03803f16                swiDecompressLZSSWram
                0x03803ed4                swiDelay
                0x03803ef2                swiDivMod
                0x03803f26                swiDecompressRLEVram
                0x03803f22                swiDecompressRLEWram
                0x03803ee8                swiDivide
                0x03803ee4                swiChangeSoundBias
                0x03803edc                swiWaitForVBlank
                0x03803ed8                swiIntrWait
                0x03803f0e                swiIsDebugger
                0x03803efe                swiCopy
 .text          0x03803f30       0xc8 c:/nds/libnds/lib\libnds7.a(interruptDispatcher.o)
                0x03803f30                IntrMain
 .text          0x03803ff8      0x100 c:/nds/libnds/lib\libnds7.a(spi.o)
                0x03803ff8                writePowerManagement
                0x03804054                readFirmware
 .text          0x038040f8      0x144 c:/nds/devkitarm/bin/../lib/gcc/arm-eabi/4.3.2\libgcc.a(_divsi3.o)
                0x038040f8                __aeabi_idiv
                0x038040f8                __divsi3
                0x03804224                __aeabi_idivmod
 .text          0x0380423c        0x4 c:/nds/devkitarm/bin/../lib/gcc/arm-eabi/4.3.2\libgcc.a(_dvmd_tls.o)
                0x0380423c                __aeabi_ldiv0
                0x0380423c                __div0
                0x0380423c                __aeabi_idiv0
 .text          0x03804240       0x3c c:/nds/devkitarm/bin/../lib/gcc/arm-eabi/4.3.2\libgcc.a(_call_via_rX.o)
                0x03804248                _call_via_r2
                0x03804258                _call_via_r6
                0x03804254                _call_via_r5
                0x0380424c                _call_via_r3
                0x0380426c                _call_via_fp
                0x03804260                _call_via_r8
                0x0380425c                _call_via_r7
                0x03804240                _call_via_r0
                0x03804268                _call_via_sl
                0x03804274                _call_via_sp
                0x03804264                _call_via_r9
                0x03804250                _call_via_r4
                0x03804244                _call_via_r1
                0x03804270                _call_via_ip
                0x03804278                _call_via_lr
 .text          0x0380427c       0xc8 c:/nds/devkitarm/bin/../lib/gcc/arm-eabi/4.3.2/../../../../arm-eabi/lib\libg.a(lib_a-init.o)
                0x038042c4                __libc_init_array
                0x0380427c                __libc_fini_array
 .text          0x03804344       0xfc c:/nds/devkitarm/bin/../lib/gcc/arm-eabi/4.3.2/../../../../arm-eabi/lib\libg.a(lib_a-memcpy.o)
                0x03804344                memcpy
 .text          0x03804440        0x0 c:/nds/devkitarm/bin/../lib/gcc/arm-eabi/4.3.2/crtend.o
 .text          0x03804440        0x0 c:/nds/devkitarm/bin/../lib/gcc/arm-eabi/4.3.2/crtn.o
 *(.text.*personality*)
 *(.gnu.warning)
 *(.glue_7t)
 .glue_7t       0x03804440        0x0 c:/nds/devkitarm/bin/../lib/gcc/arm-eabi/4.3.2/../../../../arm-eabi/lib/ds_arm7_crt0.o
 .glue_7t       0x03804440        0x0 c:/nds/devkitarm/bin/../lib/gcc/arm-eabi/4.3.2/crti.o
 .glue_7t       0x03804440        0x0 c:/nds/devkitarm/bin/../lib/gcc/arm-eabi/4.3.2/crtbegin.o
 .glue_7t       0x03804440        0x0 template.o
 .glue_7t       0x03804440        0x0 c:/nds/libnds/lib\libdswifi7.a(wifi_arm7.o)
 .glue_7t       0x03804440        0x0 c:/nds/libnds/lib\libdswifi7.a(spinlock.o)
 .glue_7t       0x03804440        0x0 c:/nds/libnds/lib\libmm7.a(mm_main.o)
 .glue_7t       0x03804440        0x0 c:/nds/libnds/lib\libmm7.a(mm_mas.o)
 .glue_7t       0x03804440        0x0 c:/nds/libnds/lib\libmm7.a(mm_mas_arm.o)
 .glue_7t       0x03804440        0x0 c:/nds/libnds/lib\libmm7.a(mm_comms7.o)
 .glue_7t       0x03804440        0x0 c:/nds/libnds/lib\libmm7.a(mm_mixer_super.o)
 .glue_7t       0x03804440        0x0 c:/nds/libnds/lib\libmm7.a(mm_reverb.o)
 .glue_7t       0x03804440        0x0 c:/nds/libnds/lib\libmm7.a(mm_stream.o)
 .glue_7t       0x03804440        0x0 c:/nds/libnds/lib\libmm7.a(mm_effect.o)
 .glue_7t       0x03804440        0x0 c:/nds/libnds/lib\libnds7.a(audio.o)
 .glue_7t       0x03804440        0x0 c:/nds/libnds/lib\libnds7.a(clock.o)
 .glue_7t       0x03804440        0x0 c:/nds/libnds/lib\libnds7.a(input.o)
 .glue_7t       0x03804440        0x0 c:/nds/libnds/lib\libnds7.a(microphone.o)
 .glue_7t       0x03804440        0x0 c:/nds/libnds/lib\libnds7.a(system.o)
 .glue_7t       0x03804440        0x0 c:/nds/libnds/lib\libnds7.a(touch.o)
 .glue_7t       0x03804440        0x0 c:/nds/libnds/lib\libnds7.a(userSettings.o)
 .glue_7t       0x03804440        0x0 c:/nds/libnds/lib\libnds7.a(fifosystem.o)
 .glue_7t       0x03804440        0x0 c:/nds/libnds/lib\libnds7.a(interrupts.o)
 .glue_7t       0x03804440        0x0 c:/nds/libnds/lib\libnds7.a(biosCalls.o)
 .glue_7t       0x03804440        0x0 c:/nds/libnds/lib\libnds7.a(interruptDispatcher.o)
 .glue_7t       0x03804440        0x0 c:/nds/libnds/lib\libnds7.a(spi.o)
 .glue_7t       0x03804440        0x0 c:/nds/devkitarm/bin/../lib/gcc/arm-eabi/4.3.2\libgcc.a(_divsi3.o)
 .glue_7t       0x03804440        0x0 c:/nds/devkitarm/bin/../lib/gcc/arm-eabi/4.3.2\libgcc.a(_dvmd_tls.o)
 .glue_7t       0x03804440        0x0 c:/nds/devkitarm/bin/../lib/gcc/arm-eabi/4.3.2\libgcc.a(_call_via_rX.o)
 .glue_7t       0x03804440        0x0 c:/nds/devkitarm/bin/../lib/gcc/arm-eabi/4.3.2/../../../../arm-eabi/lib\libg.a(lib_a-init.o)
 .glue_7t       0x03804440        0x0 c:/nds/devkitarm/bin/../lib/gcc/arm-eabi/4.3.2/../../../../arm-eabi/lib\libg.a(lib_a-memcpy.o)
 .glue_7t       0x03804440        0x0 c:/nds/devkitarm/bin/../lib/gcc/arm-eabi/4.3.2/crtend.o
 .glue_7t       0x03804440        0x0 c:/nds/devkitarm/bin/../lib/gcc/arm-eabi/4.3.2/crtn.o
 *(.glue_7)
 .glue_7        0x03804440        0x0 c:/nds/devkitarm/bin/../lib/gcc/arm-eabi/4.3.2/../../../../arm-eabi/lib/ds_arm7_crt0.o
 .glue_7        0x03804440        0x0 c:/nds/devkitarm/bin/../lib/gcc/arm-eabi/4.3.2/crti.o
 .glue_7        0x03804440        0x0 c:/nds/devkitarm/bin/../lib/gcc/arm-eabi/4.3.2/crtbegin.o
 .glue_7        0x03804440        0x0 template.o
 .glue_7        0x03804440        0x0 c:/nds/libnds/lib\libdswifi7.a(wifi_arm7.o)
 .glue_7        0x03804440        0x0 c:/nds/libnds/lib\libdswifi7.a(spinlock.o)
 .glue_7        0x03804440        0x0 c:/nds/libnds/lib\libmm7.a(mm_main.o)
 .glue_7        0x03804440        0x0 c:/nds/libnds/lib\libmm7.a(mm_mas.o)
 .glue_7        0x03804440        0x0 c:/nds/libnds/lib\libmm7.a(mm_mas_arm.o)
 .glue_7        0x03804440        0x0 c:/nds/libnds/lib\libmm7.a(mm_comms7.o)
 .glue_7        0x03804440        0x0 c:/nds/libnds/lib\libmm7.a(mm_mixer_super.o)
 .glue_7        0x03804440        0x0 c:/nds/libnds/lib\libmm7.a(mm_reverb.o)
 .glue_7        0x03804440        0x0 c:/nds/libnds/lib\libmm7.a(mm_stream.o)
 .glue_7        0x03804440        0x0 c:/nds/libnds/lib\libmm7.a(mm_effect.o)
 .glue_7        0x03804440        0x0 c:/nds/libnds/lib\libnds7.a(audio.o)
 .glue_7        0x03804440        0x0 c:/nds/libnds/lib\libnds7.a(clock.o)
 .glue_7        0x03804440        0x0 c:/nds/libnds/lib\libnds7.a(input.o)
 .glue_7        0x03804440        0x0 c:/nds/libnds/lib\libnds7.a(microphone.o)
 .glue_7        0x03804440        0x0 c:/nds/libnds/lib\libnds7.a(system.o)
 .glue_7        0x03804440        0x0 c:/nds/libnds/lib\libnds7.a(touch.o)
 .glue_7        0x03804440        0x0 c:/nds/libnds/lib\libnds7.a(userSettings.o)
 .glue_7        0x03804440        0x0 c:/nds/libnds/lib\libnds7.a(fifosystem.o)
 .glue_7        0x03804440        0x0 c:/nds/libnds/lib\libnds7.a(interrupts.o)
 .glue_7        0x03804440        0x0 c:/nds/libnds/lib\libnds7.a(biosCalls.o)
 .glue_7        0x03804440        0x0 c:/nds/libnds/lib\libnds7.a(interruptDispatcher.o)
 .glue_7        0x03804440        0x0 c:/nds/libnds/lib\libnds7.a(spi.o)
 .glue_7        0x03804440        0x0 c:/nds/devkitarm/bin/../lib/gcc/arm-eabi/4.3.2\libgcc.a(_divsi3.o)
 .glue_7        0x03804440        0x0 c:/nds/devkitarm/bin/../lib/gcc/arm-eabi/4.3.2\libgcc.a(_dvmd_tls.o)
 .glue_7        0x03804440        0x0 c:/nds/devkitarm/bin/../lib/gcc/arm-eabi/4.3.2\libgcc.a(_call_via_rX.o)
 .glue_7        0x03804440        0x0 c:/nds/devkitarm/bin/../lib/gcc/arm-eabi/4.3.2/../../../../arm-eabi/lib\libg.a(lib_a-init.o)
 .glue_7        0x03804440        0x0 c:/nds/devkitarm/bin/../lib/gcc/arm-eabi/4.3.2/../../../../arm-eabi/lib\libg.a(lib_a-memcpy.o)
 .glue_7        0x03804440        0x0 c:/nds/devkitarm/bin/../lib/gcc/arm-eabi/4.3.2/crtend.o
 .glue_7        0x03804440        0x0 c:/nds/devkitarm/bin/../lib/gcc/arm-eabi/4.3.2/crtn.o
 *(.vfp11_veneer)
 .vfp11_veneer  0x03804440        0x0 c:/nds/devkitarm/bin/../lib/gcc/arm-eabi/4.3.2/../../../../arm-eabi/lib/ds_arm7_crt0.o
 .vfp11_veneer  0x03804440        0x0 c:/nds/devkitarm/bin/../lib/gcc/arm-eabi/4.3.2/crti.o
 .vfp11_veneer  0x03804440        0x0 c:/nds/devkitarm/bin/../lib/gcc/arm-eabi/4.3.2/crtbegin.o
 .vfp11_veneer  0x03804440        0x0 template.o
 .vfp11_veneer  0x03804440        0x0 c:/nds/libnds/lib\libdswifi7.a(wifi_arm7.o)
 .vfp11_veneer  0x03804440        0x0 c:/nds/libnds/lib\libdswifi7.a(spinlock.o)
 .vfp11_veneer  0x03804440        0x0 c:/nds/libnds/lib\libmm7.a(mm_main.o)
 .vfp11_veneer  0x03804440        0x0 c:/nds/libnds/lib\libmm7.a(mm_mas.o)
 .vfp11_veneer  0x03804440        0x0 c:/nds/libnds/lib\libmm7.a(mm_mas_arm.o)
 .vfp11_veneer  0x03804440        0x0 c:/nds/libnds/lib\libmm7.a(mm_comms7.o)
 .vfp11_veneer  0x03804440        0x0 c:/nds/libnds/lib\libmm7.a(mm_mixer_super.o)
 .vfp11_veneer  0x03804440        0x0 c:/nds/libnds/lib\libmm7.a(mm_reverb.o)
 .vfp11_veneer  0x03804440        0x0 c:/nds/libnds/lib\libmm7.a(mm_stream.o)
 .vfp11_veneer  0x03804440        0x0 c:/nds/libnds/lib\libmm7.a(mm_effect.o)
 .vfp11_veneer  0x03804440        0x0 c:/nds/libnds/lib\libnds7.a(audio.o)
 .vfp11_veneer  0x03804440        0x0 c:/nds/libnds/lib\libnds7.a(clock.o)
 .vfp11_veneer  0x03804440        0x0 c:/nds/libnds/lib\libnds7.a(input.o)
 .vfp11_veneer  0x03804440        0x0 c:/nds/libnds/lib\libnds7.a(microphone.o)
 .vfp11_veneer  0x03804440        0x0 c:/nds/libnds/lib\libnds7.a(system.o)
 .vfp11_veneer  0x03804440        0x0 c:/nds/libnds/lib\libnds7.a(touch.o)
 .vfp11_veneer  0x03804440        0x0 c:/nds/libnds/lib\libnds7.a(userSettings.o)
 .vfp11_veneer  0x03804440        0x0 c:/nds/libnds/lib\libnds7.a(fifosystem.o)
 .vfp11_veneer  0x03804440        0x0 c:/nds/libnds/lib\libnds7.a(interrupts.o)
 .vfp11_veneer  0x03804440        0x0 c:/nds/libnds/lib\libnds7.a(biosCalls.o)
 .vfp11_veneer  0x03804440        0x0 c:/nds/libnds/lib\libnds7.a(interruptDispatcher.o)
 .vfp11_veneer  0x03804440        0x0 c:/nds/libnds/lib\libnds7.a(spi.o)
 .vfp11_veneer  0x03804440        0x0 c:/nds/devkitarm/bin/../lib/gcc/arm-eabi/4.3.2\libgcc.a(_divsi3.o)
 .vfp11_veneer  0x03804440        0x0 c:/nds/devkitarm/bin/../lib/gcc/arm-eabi/4.3.2\libgcc.a(_dvmd_tls.o)
 .vfp11_veneer  0x03804440        0x0 c:/nds/devkitarm/bin/../lib/gcc/arm-eabi/4.3.2\libgcc.a(_call_via_rX.o)
 .vfp11_veneer  0x03804440        0x0 c:/nds/devkitarm/bin/../lib/gcc/arm-eabi/4.3.2/../../../../arm-eabi/lib\libg.a(lib_a-init.o)
 .vfp11_veneer  0x03804440        0x0 c:/nds/devkitarm/bin/../lib/gcc/arm-eabi/4.3.2/../../../../arm-eabi/lib\libg.a(lib_a-memcpy.o)
 .vfp11_veneer  0x03804440        0x0 c:/nds/devkitarm/bin/../lib/gcc/arm-eabi/4.3.2/crtend.o
 .vfp11_veneer  0x03804440        0x0 c:/nds/devkitarm/bin/../lib/gcc/arm-eabi/4.3.2/crtn.o
                0x03804440                . = ALIGN (0x4)

.v4_bx          0x00000000        0x0
 .v4_bx         0x00000000        0x0 c:/nds/devkitarm/bin/../lib/gcc/arm-eabi/4.3.2/../../../../arm-eabi/lib/ds_arm7_crt0.o
 .v4_bx         0x00000000        0x0 c:/nds/devkitarm/bin/../lib/gcc/arm-eabi/4.3.2/crti.o
 .v4_bx         0x00000000        0x0 c:/nds/devkitarm/bin/../lib/gcc/arm-eabi/4.3.2/crtbegin.o
 .v4_bx         0x00000000        0x0 template.o
 .v4_bx         0x00000000        0x0 c:/nds/libnds/lib\libdswifi7.a(wifi_arm7.o)
 .v4_bx         0x00000000        0x0 c:/nds/libnds/lib\libdswifi7.a(spinlock.o)
 .v4_bx         0x00000000        0x0 c:/nds/libnds/lib\libmm7.a(mm_main.o)
 .v4_bx         0x00000000        0x0 c:/nds/libnds/lib\libmm7.a(mm_mas.o)
 .v4_bx         0x00000000        0x0 c:/nds/libnds/lib\libmm7.a(mm_mas_arm.o)
 .v4_bx         0x00000000        0x0 c:/nds/libnds/lib\libmm7.a(mm_comms7.o)
 .v4_bx         0x00000000        0x0 c:/nds/libnds/lib\libmm7.a(mm_mixer_super.o)
 .v4_bx         0x00000000        0x0 c:/nds/libnds/lib\libmm7.a(mm_reverb.o)
 .v4_bx         0x00000000        0x0 c:/nds/libnds/lib\libmm7.a(mm_stream.o)
 .v4_bx         0x00000000        0x0 c:/nds/libnds/lib\libmm7.a(mm_effect.o)
 .v4_bx         0x00000000        0x0 c:/nds/libnds/lib\libnds7.a(audio.o)
 .v4_bx         0x00000000        0x0 c:/nds/libnds/lib\libnds7.a(clock.o)
 .v4_bx         0x00000000        0x0 c:/nds/libnds/lib\libnds7.a(input.o)
 .v4_bx         0x00000000        0x0 c:/nds/libnds/lib\libnds7.a(microphone.o)
 .v4_bx         0x00000000        0x0 c:/nds/libnds/lib\libnds7.a(system.o)
 .v4_bx         0x00000000        0x0 c:/nds/libnds/lib\libnds7.a(touch.o)
 .v4_bx         0x00000000        0x0 c:/nds/libnds/lib\libnds7.a(userSettings.o)
 .v4_bx         0x00000000        0x0 c:/nds/libnds/lib\libnds7.a(fifosystem.o)
 .v4_bx         0x00000000        0x0 c:/nds/libnds/lib\libnds7.a(interrupts.o)
 .v4_bx         0x00000000        0x0 c:/nds/libnds/lib\libnds7.a(biosCalls.o)
 .v4_bx         0x00000000        0x0 c:/nds/libnds/lib\libnds7.a(interruptDispatcher.o)
 .v4_bx         0x00000000        0x0 c:/nds/libnds/lib\libnds7.a(spi.o)
 .v4_bx         0x00000000        0x0 c:/nds/devkitarm/bin/../lib/gcc/arm-eabi/4.3.2\libgcc.a(_divsi3.o)
 .v4_bx         0x00000000        0x0 c:/nds/devkitarm/bin/../lib/gcc/arm-eabi/4.3.2\libgcc.a(_dvmd_tls.o)
 .v4_bx         0x00000000        0x0 c:/nds/devkitarm/bin/../lib/gcc/arm-eabi/4.3.2\libgcc.a(_call_via_rX.o)
 .v4_bx         0x00000000        0x0 c:/nds/devkitarm/bin/../lib/gcc/arm-eabi/4.3.2/../../../../arm-eabi/lib\libg.a(lib_a-init.o)
 .v4_bx         0x00000000        0x0 c:/nds/devkitarm/bin/../lib/gcc/arm-eabi/4.3.2/../../../../arm-eabi/lib\libg.a(lib_a-memcpy.o)
 .v4_bx         0x00000000        0x0 c:/nds/devkitarm/bin/../lib/gcc/arm-eabi/4.3.2/crtend.o
 .v4_bx         0x00000000        0x0 c:/nds/devkitarm/bin/../lib/gcc/arm-eabi/4.3.2/crtn.o

.fini           0x03804440       0x18
 *(.fini)
 .fini          0x03804440        0xc c:/nds/devkitarm/bin/../lib/gcc/arm-eabi/4.3.2/crti.o
                0x03804440                _fini
 .fini          0x0380444c        0xc c:/nds/devkitarm/bin/../lib/gcc/arm-eabi/4.3.2/crtn.o
                0x03804458                __text_end = .

.rodata         0x03804458       0x1c
 *(.rodata)
 .rodata        0x03804458       0x1a c:/nds/libnds/lib\libnds7.a(clock.o)
 *all.rodata*(*)
 *(.roda)
 *(.rodata.*)
 *(.gnu.linkonce.r*)
                0x03804474                . = ALIGN (0x4)
 *fill*         0x03804472        0x2 ff

.ARM.extab
 *(.ARM.extab* .gnu.linkonce.armextab.*)
                0x03804474                __exidx_start = .

.ARM.exidx
 *(.ARM.exidx* .gnu.linkonce.armexidx.*)
                0x03804474                __exidx_end = .
                0x03804474                . = ALIGN (0x4)
                0x03804474                PROVIDE (__preinit_array_start, .)

.preinit_array
 *(.preinit_array)
                0x03804474                PROVIDE (__preinit_array_end, .)
                0x03804474                PROVIDE (__init_array_start, .)

.init_array     0x03804474        0x4
 *(.init_array)
 .init_array    0x03804474        0x4 c:/nds/devkitarm/bin/../lib/gcc/arm-eabi/4.3.2/crtbegin.o
                0x03804478                PROVIDE (__init_array_end, .)
                0x03804478                PROVIDE (__fini_array_start, .)

.fini_array     0x03804478        0x4
 *(.fini_array)
 .fini_array    0x03804478        0x4 c:/nds/devkitarm/bin/../lib/gcc/arm-eabi/4.3.2/crtbegin.o
                0x0380447c                PROVIDE (__fini_array_end, .)

.ctors          0x0380447c        0x0
 *crtbegin.o(.ctors)
 *(EXCLUDE_FILE(*crtend.o) .ctors)
 *(SORT(.ctors.*))
 *(.ctors)
                0x0380447c                . = ALIGN (0x4)

.dtors          0x0380447c        0x0
 *crtbegin.o(.dtors)
 *(EXCLUDE_FILE(*crtend.o) .dtors)
 *(SORT(.dtors.*))
 *(.dtors)
                0x0380447c                . = ALIGN (0x4)

.eh_frame       0x0380447c        0x4
 *(.eh_frame)
 .eh_frame      0x0380447c        0x0 c:/nds/devkitarm/bin/../lib/gcc/arm-eabi/4.3.2/crtbegin.o
 .eh_frame      0x0380447c        0x4 c:/nds/devkitarm/bin/../lib/gcc/arm-eabi/4.3.2/crtend.o
                0x03804480                . = ALIGN (0x4)

.gcc_except_table
                0x03804480        0x0
 *(.gcc_except_table)
                0x03804480                . = ALIGN (0x4)

.jcr            0x03804480        0x4
 *(.jcr)
 .jcr           0x03804480        0x0 c:/nds/devkitarm/bin/../lib/gcc/arm-eabi/4.3.2/crtbegin.o
 .jcr           0x03804480        0x4 c:/nds/devkitarm/bin/../lib/gcc/arm-eabi/4.3.2/crtend.o

.got
 *(.got.plt)
 *(.got)

.iwram          0x03804484        0x0
                0x03804484                __iwram_start = ABSOLUTE (.)
 *(.iwram)
 *iwram.*(.text)
                0x03804484                . = ALIGN (0x4)
                0x03804484                __iwram_end = ABSOLUTE (.)

.data           0x03804484      0x11c
                0x03804484                __data_start = ABSOLUTE (.)
 *(.data)
 .data          0x03804484        0x0 c:/nds/devkitarm/bin/../lib/gcc/arm-eabi/4.3.2/../../../../arm-eabi/lib/ds_arm7_crt0.o
 .data          0x03804484        0x0 c:/nds/devkitarm/bin/../lib/gcc/arm-eabi/4.3.2/crti.o
 .data          0x03804484        0x4 c:/nds/devkitarm/bin/../lib/gcc/arm-eabi/4.3.2/crtbegin.o
                0x03804484                __dso_handle
 .data          0x03804488        0x0 template.o
 .data          0x03804488      0x114 c:/nds/libnds/lib\libdswifi7.a(wifi_arm7.o)
                0x038044c8                MAC_Reglist
                0x03804520                MAC_Vallist
                0x03804488                RF_Reglist
                0x03804578                count_ofs_list
 .data          0x0380459c        0x0 c:/nds/libnds/lib\libdswifi7.a(spinlock.o)
 .data          0x0380459c        0x0 c:/nds/libnds/lib\libmm7.a(mm_main.o)
 .data          0x0380459c        0x0 c:/nds/libnds/lib\libmm7.a(mm_mas.o)
 .data          0x0380459c        0x0 c:/nds/libnds/lib\libmm7.a(mm_mas_arm.o)
 .data          0x0380459c        0x0 c:/nds/libnds/lib\libmm7.a(mm_comms7.o)
 .data          0x0380459c        0x0 c:/nds/libnds/lib\libmm7.a(mm_mixer_super.o)
 .data          0x0380459c        0x0 c:/nds/libnds/lib\libmm7.a(mm_reverb.o)
 .data          0x0380459c        0x0 c:/nds/libnds/lib\libmm7.a(mm_stream.o)
 .data          0x0380459c        0x0 c:/nds/libnds/lib\libmm7.a(mm_effect.o)
 .data          0x0380459c        0x0 c:/nds/libnds/lib\libnds7.a(audio.o)
 .data          0x0380459c        0x0 c:/nds/libnds/lib\libnds7.a(clock.o)
 .data          0x0380459c        0x0 c:/nds/libnds/lib\libnds7.a(input.o)
 .data          0x0380459c        0x1 c:/nds/libnds/lib\libnds7.a(microphone.o)
 .data          0x0380459d        0x1 c:/nds/libnds/lib\libnds7.a(system.o)
                0x0380459d                sleepIsEnabled
 .data          0x0380459e        0x1 c:/nds/libnds/lib\libnds7.a(touch.o)
 .data          0x0380459f        0x0 c:/nds/libnds/lib\libnds7.a(userSettings.o)
 .data          0x0380459f        0x0 c:/nds/libnds/lib\libnds7.a(fifosystem.o)
 .data          0x0380459f        0x0 c:/nds/libnds/lib\libnds7.a(interrupts.o)
 .data          0x0380459f        0x0 c:/nds/libnds/lib\libnds7.a(biosCalls.o)
 .data          0x0380459f        0x0 c:/nds/libnds/lib\libnds7.a(interruptDispatcher.o)
 .data          0x0380459f        0x0 c:/nds/libnds/lib\libnds7.a(spi.o)
 .data          0x0380459f        0x0 c:/nds/devkitarm/bin/../lib/gcc/arm-eabi/4.3.2\libgcc.a(_divsi3.o)
 .data          0x0380459f        0x0 c:/nds/devkitarm/bin/../lib/gcc/arm-eabi/4.3.2\libgcc.a(_dvmd_tls.o)
 .data          0x0380459f        0x0 c:/nds/devkitarm/bin/../lib/gcc/arm-eabi/4.3.2\libgcc.a(_call_via_rX.o)
 .data          0x0380459f        0x0 c:/nds/devkitarm/bin/../lib/gcc/arm-eabi/4.3.2/../../../../arm-eabi/lib\libg.a(lib_a-init.o)
 .data          0x0380459f        0x0 c:/nds/devkitarm/bin/../lib/gcc/arm-eabi/4.3.2/../../../../arm-eabi/lib\libg.a(lib_a-memcpy.o)
 .data          0x0380459f        0x0 c:/nds/devkitarm/bin/../lib/gcc/arm-eabi/4.3.2/crtend.o
 .data          0x0380459f        0x0 c:/nds/devkitarm/bin/../lib/gcc/arm-eabi/4.3.2/crtn.o
 *(.data.*)
 *(.gnu.linkonce.d*)
                0x038045a0                . = ALIGN (0x4)
 *fill*         0x0380459f        0x1 ff
                0x038045a0                __data_end = ABSOLUTE (.)

.bss            0x038045a0     0x4410
                0x038045a0                __bss_start = ABSOLUTE (.)
                0x038045a0                __bss_start__ = ABSOLUTE (.)
 *(.dynbss)
 *(.gnu.linkonce.b*)
 *(.bss*)
 .bss           0x038045a0        0x0 c:/nds/devkitarm/bin/../lib/gcc/arm-eabi/4.3.2/../../../../arm-eabi/lib/ds_arm7_crt0.o
 .bss           0x038045a0        0x0 c:/nds/devkitarm/bin/../lib/gcc/arm-eabi/4.3.2/crti.o
 .bss           0x038045a0       0x1c c:/nds/devkitarm/bin/../lib/gcc/arm-eabi/4.3.2/crtbegin.o
 .bss           0x038045bc        0x0 template.o
 .bss           0x038045bc       0x18 c:/nds/libnds/lib\libdswifi7.a(wifi_arm7.o)
                0x038045c8                chdata_save5
                0x038045c4                keepalive_time
                0x038045cc                led_state
                0x038045bc                WifiData
                0x038045c0                synchandler
                0x038045d0                arm7qlen
 .bss           0x038045d4        0x0 c:/nds/libnds/lib\libdswifi7.a(spinlock.o)
 .bss           0x038045d4      0x89c c:/nds/libnds/lib\libmm7.a(mm_main.o)
                0x03804e6c                mmInitialized
                0x038045dc                mmModuleBank
                0x038045e8                mm_vblank_function
                0x038045d4                mmCallback
                0x038045e4                mm_ch_mask
                0x038045d8                mmModuleCount
                0x038045e0                mmSampleBank
 .bss           0x03804e70      0x148 c:/nds/libnds/lib\libmm7.a(mm_mas.o)
                0x03804f05                mpp_clayer
                0x03804ee0                mpp_vars
                0x03804ef0                mpp_layerp
                0x03804f10                mm_num_mch
                0x03804ef4                mpp_channels
                0x03804f04                mpp_nchannels
                0x03804ea8                mmLayerSub
                0x03804e70                mmLayerMain
                0x03804f14                mm_num_ach
                0x03804f0c                mm_pchannels
                0x03804f08                mm_achannels
                0x03804f18                mm_schannels
 .bss           0x03804fb8        0x0 c:/nds/libnds/lib\libmm7.a(mm_mas_arm.o)
 .bss           0x03804fb8      0x10c c:/nds/libnds/lib\libmm7.a(mm_comms7.o)
 .bss           0x038050c4     0x2364 c:/nds/libnds/lib\libmm7.a(mm_mixer_super.o)
                0x038050c4                mm_mix_channels
                0x03807425                mm_mixing_mode
 .bss           0x03807428        0x8 c:/nds/libnds/lib\libmm7.a(mm_reverb.o)
 .bss           0x03807430       0x24 c:/nds/libnds/lib\libmm7.a(mm_stream.o)
 .bss           0x03807454       0x2c c:/nds/libnds/lib\libmm7.a(mm_effect.o)
                0x03807478                mm_sfx_bitmask
 .bss           0x03807480        0x0 c:/nds/libnds/lib\libnds7.a(audio.o)
 .bss           0x03807480        0x0 c:/nds/libnds/lib\libnds7.a(clock.o)
 .bss           0x03807480        0x8 c:/nds/libnds/lib\libnds7.a(input.o)
 .bss           0x03807488       0x20 c:/nds/libnds/lib\libnds7.a(microphone.o)
 .bss           0x038074a8        0x0 c:/nds/libnds/lib\libnds7.a(system.o)
 .bss           0x038074a8       0x14 c:/nds/libnds/lib\libnds7.a(touch.o)
 .bss           0x038074bc        0x0 c:/nds/libnds/lib\libnds7.a(userSettings.o)
 .bss           0x038074bc       0x14 c:/nds/libnds/lib\libnds7.a(fifosystem.o)
                0x038074cc                fifo_lost_words
                0x038074c8                fifo_recv_status
                0x038074bc                fifo_initialized
                0x038074c4                fifo_send_status
                0x038074c0                fifo_protect_levels
 .bss           0x038074d0        0x0 c:/nds/libnds/lib\libnds7.a(interrupts.o)
 .bss           0x038074d0        0x0 c:/nds/libnds/lib\libnds7.a(biosCalls.o)
 .bss           0x038074d0        0x0 c:/nds/libnds/lib\libnds7.a(interruptDispatcher.o)
 .bss           0x038074d0        0x0 c:/nds/libnds/lib\libnds7.a(spi.o)
 .bss           0x038074d0        0x0 c:/nds/devkitarm/bin/../lib/gcc/arm-eabi/4.3.2\libgcc.a(_divsi3.o)
 .bss           0x038074d0        0x0 c:/nds/devkitarm/bin/../lib/gcc/arm-eabi/4.3.2\libgcc.a(_dvmd_tls.o)
 .bss           0x038074d0        0x0 c:/nds/devkitarm/bin/../lib/gcc/arm-eabi/4.3.2\libgcc.a(_call_via_rX.o)
 .bss           0x038074d0        0x0 c:/nds/devkitarm/bin/../lib/gcc/arm-eabi/4.3.2/../../../../arm-eabi/lib\libg.a(lib_a-init.o)
 .bss           0x038074d0        0x0 c:/nds/devkitarm/bin/../lib/gcc/arm-eabi/4.3.2/../../../../arm-eabi/lib\libg.a(lib_a-memcpy.o)
 .bss           0x038074d0        0x0 c:/nds/devkitarm/bin/../lib/gcc/arm-eabi/4.3.2/crtend.o
 .bss           0x038074d0        0x0 c:/nds/devkitarm/bin/../lib/gcc/arm-eabi/4.3.2/crtn.o
 *(COMMON)
 COMMON         0x038074d0      0xa00 c:/nds/libnds/lib\libdswifi7.a(wifi_arm7.o)
                0x038074d0                arm7q
                0x03807cd0                FlashData
 COMMON         0x03807ed0        0x1 c:/nds/libnds/lib\libnds7.a(input.o)
                0x03807ed0                Keys
 *fill*         0x03807ed1        0x3 00
 COMMON         0x03807ed4      0xa14 c:/nds/libnds/lib\libnds7.a(fifosystem.o)
                0x03807ed4                fifo_datamsg_data
                0x03807f14                fifo_buffer
                0x03808714                fifo_value32_func
                0x03808754                fifo_address_func
                0x03808794                fifo_freelist_start
                0x03808798                fifo_value32_data
                0x038087d8                fifo_sendwords_end
                0x038087dc                fifo_rcvdwords_start
                0x038087e0                fifo_channel_start
                0x03808820                fifo_sendwords_start
                0x03808824                fifo_address_data
                0x03808864                fifo_channel_end
                0x038088a4                fifo_rcvdwords_end
                0x038088a8                fifo_datamsg_func
 COMMON         0x038088e8       0xc8 c:/nds/libnds/lib\libnds7.a(interrupts.o)
                0x038088e8                irqTable
                0x038089b0                . = ALIGN (0x4)
                0x038089b0                __bss_end = .
                0x038089b0                __bss_end__ = .
                0x038089b0                _end = .
                0x038089b0                __end__ = .
                0x038089b0                PROVIDE (end, _end)

.stab
 *(.stab)

.stabstr
 *(.stabstr)

.stab.excl
 *(.stab.excl)

.stab.exclstr
 *(.stab.exclstr)

.stab.index
 *(.stab.index)

.stab.indexstr
 *(.stab.indexstr)

.comment        0x00000000      0x230
 *(.comment)
 .comment       0x00000000       0x23 c:/nds/devkitarm/bin/../lib/gcc/arm-eabi/4.3.2/crtbegin.o
 .comment       0x00000023       0x23 template.o
 .comment       0x00000046       0x23 c:/nds/libnds/lib\libdswifi7.a(wifi_arm7.o)
 .comment       0x00000069       0x23 c:/nds/libnds/lib\libnds7.a(audio.o)
 .comment       0x0000008c       0x23 c:/nds/libnds/lib\libnds7.a(clock.o)
 .comment       0x000000af       0x23 c:/nds/libnds/lib\libnds7.a(input.o)
 .comment       0x000000d2       0x23 c:/nds/libnds/lib\libnds7.a(microphone.o)
 .comment       0x000000f5       0x23 c:/nds/libnds/lib\libnds7.a(system.o)
 .comment       0x00000118       0x23 c:/nds/libnds/lib\libnds7.a(touch.o)
 .comment       0x0000013b       0x23 c:/nds/libnds/lib\libnds7.a(userSettings.o)
 .comment       0x0000015e       0x23 c:/nds/libnds/lib\libnds7.a(fifosystem.o)
 .comment       0x00000181       0x23 c:/nds/libnds/lib\libnds7.a(interrupts.o)
 .comment       0x000001a4       0x23 c:/nds/libnds/lib\libnds7.a(spi.o)
 .comment       0x000001c7       0x23 c:/nds/devkitarm/bin/../lib/gcc/arm-eabi/4.3.2/../../../../arm-eabi/lib\libg.a(lib_a-init.o)
 .comment       0x000001ea       0x23 c:/nds/devkitarm/bin/../lib/gcc/arm-eabi/4.3.2/../../../../arm-eabi/lib\libg.a(lib_a-memcpy.o)
 .comment       0x0000020d       0x23 c:/nds/devkitarm/bin/../lib/gcc/arm-eabi/4.3.2/crtend.o

.debug
 *(.debug)

.line
 *(.line)

.debug_srcinfo
 *(.debug_srcinfo)

.debug_sfnames
 *(.debug_sfnames)

.debug_aranges  0x00000000      0x230
 *(.debug_aranges)
 .debug_aranges
                0x00000000       0x28 c:/nds/devkitarm/bin/../lib/gcc/arm-eabi/4.3.2/crti.o
 .debug_aranges
                0x00000028       0x20 template.o
 .debug_aranges
                0x00000048       0x20 c:/nds/libnds/lib\libdswifi7.a(wifi_arm7.o)
 .debug_aranges
                0x00000068       0x20 c:/nds/libnds/lib\libdswifi7.a(spinlock.o)
 .debug_aranges
                0x00000088       0x20 c:/nds/libnds/lib\libnds7.a(audio.o)
 .debug_aranges
                0x000000a8       0x20 c:/nds/libnds/lib\libnds7.a(clock.o)
 .debug_aranges
                0x000000c8       0x20 c:/nds/libnds/lib\libnds7.a(input.o)
 .debug_aranges
                0x000000e8       0x20 c:/nds/libnds/lib\libnds7.a(microphone.o)
 .debug_aranges
                0x00000108       0x20 c:/nds/libnds/lib\libnds7.a(system.o)
 .debug_aranges
                0x00000128       0x20 c:/nds/libnds/lib\libnds7.a(touch.o)
 .debug_aranges
                0x00000148       0x20 c:/nds/libnds/lib\libnds7.a(userSettings.o)
 .debug_aranges
                0x00000168       0x20 c:/nds/libnds/lib\libnds7.a(fifosystem.o)
 .debug_aranges
                0x00000188       0x20 c:/nds/libnds/lib\libnds7.a(interrupts.o)
 .debug_aranges
                0x000001a8       0x20 c:/nds/libnds/lib\libnds7.a(biosCalls.o)
 .debug_aranges
                0x000001c8       0x20 c:/nds/libnds/lib\libnds7.a(interruptDispatcher.o)
 .debug_aranges
                0x000001e8       0x20 c:/nds/libnds/lib\libnds7.a(spi.o)
 .debug_aranges
                0x00000208       0x28 c:/nds/devkitarm/bin/../lib/gcc/arm-eabi/4.3.2/crtn.o

.debug_pubnames
                0x00000000      0xf04
 *(.debug_pubnames)
 .debug_pubnames
                0x00000000       0x3f template.o
 .debug_pubnames
                0x0000003f      0x5b7 c:/nds/libnds/lib\libdswifi7.a(wifi_arm7.o)
 .debug_pubnames
                0x000005f6       0xa8 c:/nds/libnds/lib\libnds7.a(audio.o)
 .debug_pubnames
                0x0000069e       0xbb c:/nds/libnds/lib\libnds7.a(clock.o)
 .debug_pubnames
                0x00000759       0x2f c:/nds/libnds/lib\libnds7.a(input.o)
 .debug_pubnames
                0x00000788       0x82 c:/nds/libnds/lib\libnds7.a(microphone.o)
 .debug_pubnames
                0x0000080a       0x72 c:/nds/libnds/lib\libnds7.a(system.o)
 .debug_pubnames
                0x0000087c       0x7c c:/nds/libnds/lib\libnds7.a(touch.o)
 .debug_pubnames
                0x000008f8       0x27 c:/nds/libnds/lib\libnds7.a(userSettings.o)
 .debug_pubnames
                0x0000091f      0x529 c:/nds/libnds/lib\libnds7.a(fifosystem.o)
 .debug_pubnames
                0x00000e48       0x80 c:/nds/libnds/lib\libnds7.a(interrupts.o)
 .debug_pubnames
                0x00000ec8       0x3c c:/nds/libnds/lib\libnds7.a(spi.o)

.debug_info     0x00000000     0x6517
 *(.debug_info)
 .debug_info    0x00000000       0x5f c:/nds/devkitarm/bin/../lib/gcc/arm-eabi/4.3.2/crti.o
 .debug_info    0x0000005f      0x21a template.o
 .debug_info    0x00000279     0x2412 c:/nds/libnds/lib\libdswifi7.a(wifi_arm7.o)
 .debug_info    0x0000268b       0xa2 c:/nds/libnds/lib\libdswifi7.a(spinlock.o)
 .debug_info    0x0000272d      0x629 c:/nds/libnds/lib\libnds7.a(audio.o)
 .debug_info    0x00002d56      0x6cb c:/nds/libnds/lib\libnds7.a(clock.o)
 .debug_info    0x00003421      0x284 c:/nds/libnds/lib\libnds7.a(input.o)
 .debug_info    0x000036a5      0x42f c:/nds/libnds/lib\libnds7.a(microphone.o)
 .debug_info    0x00003ad4      0x38c c:/nds/libnds/lib\libnds7.a(system.o)
 .debug_info    0x00003e60      0x85e c:/nds/libnds/lib\libnds7.a(touch.o)
 .debug_info    0x000046be      0x3db c:/nds/libnds/lib\libnds7.a(userSettings.o)
 .debug_info    0x00004a99     0x144a c:/nds/libnds/lib\libnds7.a(fifosystem.o)
 .debug_info    0x00005ee3      0x321 c:/nds/libnds/lib\libnds7.a(interrupts.o)
 .debug_info    0x00006204       0xbf c:/nds/libnds/lib\libnds7.a(biosCalls.o)
 .debug_info    0x000062c3       0xc9 c:/nds/libnds/lib\libnds7.a(interruptDispatcher.o)
 .debug_info    0x0000638c      0x12c c:/nds/libnds/lib\libnds7.a(spi.o)
 .debug_info    0x000064b8       0x5f c:/nds/devkitarm/bin/../lib/gcc/arm-eabi/4.3.2/crtn.o

.debug_abbrev   0x00000000     0x1603
 *(.debug_abbrev)
 .debug_abbrev  0x00000000       0x12 c:/nds/devkitarm/bin/../lib/gcc/arm-eabi/4.3.2/crti.o
 .debug_abbrev  0x00000012       0xc9 template.o
 .debug_abbrev  0x000000db      0x55a c:/nds/libnds/lib\libdswifi7.a(wifi_arm7.o)
 .debug_abbrev  0x00000635       0x14 c:/nds/libnds/lib\libdswifi7.a(spinlock.o)
 .debug_abbrev  0x00000649      0x1b5 c:/nds/libnds/lib\libnds7.a(audio.o)
 .debug_abbrev  0x000007fe      0x22a c:/nds/libnds/lib\libnds7.a(clock.o)
 .debug_abbrev  0x00000a28       0xd2 c:/nds/libnds/lib\libnds7.a(input.o)
 .debug_abbrev  0x00000afa      0x14d c:/nds/libnds/lib\libnds7.a(microphone.o)
 .debug_abbrev  0x00000c47      0x133 c:/nds/libnds/lib\libnds7.a(system.o)
 .debug_abbrev  0x00000d7a      0x221 c:/nds/libnds/lib\libnds7.a(touch.o)
 .debug_abbrev  0x00000f9b       0xe2 c:/nds/libnds/lib\libnds7.a(userSettings.o)
 .debug_abbrev  0x0000107d      0x349 c:/nds/libnds/lib\libnds7.a(fifosystem.o)
 .debug_abbrev  0x000013c6      0x161 c:/nds/libnds/lib\libnds7.a(interrupts.o)
 .debug_abbrev  0x00001527       0x14 c:/nds/libnds/lib\libnds7.a(biosCalls.o)
 .debug_abbrev  0x0000153b       0x14 c:/nds/libnds/lib\libnds7.a(interruptDispatcher.o)
 .debug_abbrev  0x0000154f       0xa2 c:/nds/libnds/lib\libnds7.a(spi.o)
 .debug_abbrev  0x000015f1       0x12 c:/nds/devkitarm/bin/../lib/gcc/arm-eabi/4.3.2/crtn.o

.debug_line     0x00000000     0x2c31
 *(.debug_line)
 .debug_line    0x00000000       0x49 c:/nds/devkitarm/bin/../lib/gcc/arm-eabi/4.3.2/crti.o
 .debug_line    0x00000049       0xcb template.o
 .debug_line    0x00000114      0xce6 c:/nds/libnds/lib\libdswifi7.a(wifi_arm7.o)
 .debug_line    0x00000dfa       0x8d c:/nds/libnds/lib\libdswifi7.a(spinlock.o)
 .debug_line    0x00000e87      0x1d5 c:/nds/libnds/lib\libnds7.a(audio.o)
 .debug_line    0x0000105c      0x312 c:/nds/libnds/lib\libnds7.a(clock.o)
 .debug_line    0x0000136e      0x18b c:/nds/libnds/lib\libnds7.a(input.o)
 .debug_line    0x000014f9      0x2c1 c:/nds/libnds/lib\libnds7.a(microphone.o)
 .debug_line    0x000017ba      0x1eb c:/nds/libnds/lib\libnds7.a(system.o)
 .debug_line    0x000019a5      0x3bc c:/nds/libnds/lib\libnds7.a(touch.o)
 .debug_line    0x00001d61      0x168 c:/nds/libnds/lib\libnds7.a(userSettings.o)
 .debug_line    0x00001ec9      0x8b3 c:/nds/libnds/lib\libnds7.a(fifosystem.o)
 .debug_line    0x0000277c      0x198 c:/nds/libnds/lib\libnds7.a(interrupts.o)
 .debug_line    0x00002914       0xb6 c:/nds/libnds/lib\libnds7.a(biosCalls.o)
 .debug_line    0x000029ca       0xbf c:/nds/libnds/lib\libnds7.a(interruptDispatcher.o)
 .debug_line    0x00002a89      0x15f c:/nds/libnds/lib\libnds7.a(spi.o)
 .debug_line    0x00002be8       0x49 c:/nds/devkitarm/bin/../lib/gcc/arm-eabi/4.3.2/crtn.o

.debug_frame    0x00000000     0x107c
 *(.debug_frame)
 .debug_frame   0x00000000       0x58 template.o
 .debug_frame   0x00000058      0x638 c:/nds/libnds/lib\libdswifi7.a(wifi_arm7.o)
 .debug_frame   0x00000690       0xc4 c:/nds/libnds/lib\libnds7.a(audio.o)
 .debug_frame   0x00000754      0x14c c:/nds/libnds/lib\libnds7.a(clock.o)
 .debug_frame   0x000008a0       0x38 c:/nds/libnds/lib\libnds7.a(input.o)
 .debug_frame   0x000008d8       0xc0 c:/nds/libnds/lib\libnds7.a(microphone.o)
 .debug_frame   0x00000998       0x6c c:/nds/libnds/lib\libnds7.a(system.o)
 .debug_frame   0x00000a04       0xdc c:/nds/libnds/lib\libnds7.a(touch.o)
 .debug_frame   0x00000ae0       0x38 c:/nds/libnds/lib\libnds7.a(userSettings.o)
 .debug_frame   0x00000b18      0x468 c:/nds/libnds/lib\libnds7.a(fifosystem.o)
 .debug_frame   0x00000f80       0xb0 c:/nds/libnds/lib\libnds7.a(interrupts.o)
 .debug_frame   0x00001030       0x4c c:/nds/libnds/lib\libnds7.a(spi.o)

.debug_str      0x00000000     0x2512
 *(.debug_str)
 .debug_str     0x00000000      0x2ac template.o
                                0x2e5 (size before relaxing)
 .debug_str     0x000002ac      0xdc9 c:/nds/libnds/lib\libdswifi7.a(wifi_arm7.o)
                               0x10ce (size before relaxing)
 .debug_str     0x00001075      0x27d c:/nds/libnds/lib\libnds7.a(audio.o)
                                0x438 (size before relaxing)
 .debug_str     0x000012f2      0x1c4 c:/nds/libnds/lib\libnds7.a(clock.o)
                                0x3ae (size before relaxing)
 .debug_str     0x000014b6       0xcd c:/nds/libnds/lib\libnds7.a(input.o)
                                0x2c9 (size before relaxing)
 .debug_str     0x00001583      0x235 c:/nds/libnds/lib\libnds7.a(microphone.o)
                                0x317 (size before relaxing)
 .debug_str     0x000017b8      0x116 c:/nds/libnds/lib\libnds7.a(system.o)
                                0x44e (size before relaxing)
 .debug_str     0x000018ce      0x2b6 c:/nds/libnds/lib\libnds7.a(touch.o)
                                0x3fe (size before relaxing)
 .debug_str     0x00001b84       0xea c:/nds/libnds/lib\libnds7.a(userSettings.o)
                                0x2dc (size before relaxing)
 .debug_str     0x00001c6e      0x6fd c:/nds/libnds/lib\libnds7.a(fifosystem.o)
                                0x8fb (size before relaxing)
 .debug_str     0x0000236b      0x136 c:/nds/libnds/lib\libnds7.a(interrupts.o)
                                0x2ec (size before relaxing)
 .debug_str     0x000024a1       0x71 c:/nds/libnds/lib\libnds7.a(spi.o)
                                0x139 (size before relaxing)

.debug_loc      0x00000000     0x4202
 *(.debug_loc)
 .debug_loc     0x00000000       0x81 template.o
 .debug_loc     0x00000081     0x1585 c:/nds/libnds/lib\libdswifi7.a(wifi_arm7.o)
 .debug_loc     0x00001606      0x2b1 c:/nds/libnds/lib\libnds7.a(audio.o)
 .debug_loc     0x000018b7      0x4a3 c:/nds/libnds/lib\libnds7.a(clock.o)
 .debug_loc     0x00001d5a       0x8c c:/nds/libnds/lib\libnds7.a(input.o)
 .debug_loc     0x00001de6      0x1e2 c:/nds/libnds/lib\libnds7.a(microphone.o)
 .debug_loc     0x00001fc8      0x12c c:/nds/libnds/lib\libnds7.a(system.o)
 .debug_loc     0x000020f4      0x67a c:/nds/libnds/lib\libnds7.a(touch.o)
 .debug_loc     0x0000276e      0x129 c:/nds/libnds/lib\libnds7.a(userSettings.o)
 .debug_loc     0x00002897     0x174f c:/nds/libnds/lib\libnds7.a(fifosystem.o)
 .debug_loc     0x00003fe6      0x13d c:/nds/libnds/lib\libnds7.a(interrupts.o)
 .debug_loc     0x00004123       0xdf c:/nds/libnds/lib\libnds7.a(spi.o)

.debug_macinfo
 *(.debug_macinfo)

.debug_weaknames
 *(.debug_weaknames)

.debug_funcnames
 *(.debug_funcnames)

.debug_typenames
 *(.debug_typenames)

.debug_varnames
 *(.debug_varnames)

.stack          0x00080000        0x0
                0x00080000                _stack = .
 *(.stack)
LOAD c:/nds/devkitarm/bin/../lib/gcc/arm-eabi/4.3.2/../../../../arm-eabi/lib/ds_arm7_crt0.o
LOAD c:/nds/devkitarm/bin/../lib/gcc/arm-eabi/4.3.2/crti.o
LOAD c:/nds/devkitarm/bin/../lib/gcc/arm-eabi/4.3.2/crtbegin.o
LOAD template.o
LOAD c:/nds/libnds/lib\libdswifi7.a
LOAD c:/nds/libnds/lib\libmm7.a
LOAD c:/nds/libnds/lib\libnds7.a
START GROUP
LOAD c:/nds/devkitarm/bin/../lib/gcc/arm-eabi/4.3.2\libgcc.a
LOAD c:/nds/devkitarm/bin/../lib/gcc/arm-eabi/4.3.2/../../../../arm-eabi/lib\libg.a
LOAD c:/nds/devkitarm/bin/../lib/gcc/arm-eabi/4.3.2/../../../../arm-eabi/lib\libc.a
LOAD c:/nds/devkitarm/bin/../lib/gcc/arm-eabi/4.3.2/../../../../arm-eabi/lib\libsysbase.a
END GROUP
LOAD c:/nds/devkitarm/bin/../lib/gcc/arm-eabi/4.3.2/crtend.o
LOAD c:/nds/devkitarm/bin/../lib/gcc/arm-eabi/4.3.2/crtn.o
OUTPUT(d:/Desktop/nds/dsbrut/libdsbrut/arm7/libdsbrut.arm7.elf elf32-littlearm)

.ARM.attributes
                0x00000000       0x2e
 .ARM.attributes
                0x00000000       0x1e c:/nds/devkitarm/bin/../lib/gcc/arm-eabi/4.3.2/../../../../arm-eabi/lib/ds_arm7_crt0.o
 .ARM.attributes
                0x0000001e       0x1e c:/nds/devkitarm/bin/../lib/gcc/arm-eabi/4.3.2/crti.o
 .ARM.attributes
                0x0000003c       0x2e c:/nds/devkitarm/bin/../lib/gcc/arm-eabi/4.3.2/crtbegin.o
 .ARM.attributes
                0x0000006a       0x2a template.o
 .ARM.attributes
                0x00000094       0x2a c:/nds/libnds/lib\libdswifi7.a(wifi_arm7.o)
 .ARM.attributes
                0x000000be       0x1e c:/nds/libnds/lib\libdswifi7.a(spinlock.o)
 .ARM.attributes
                0x000000dc       0x20 c:/nds/libnds/lib\libmm7.a(mm_main.o)
 .ARM.attributes
                0x000000fc       0x20 c:/nds/libnds/lib\libmm7.a(mm_mas.o)
 .ARM.attributes
                0x0000011c       0x1e c:/nds/libnds/lib\libmm7.a(mm_mas_arm.o)
 .ARM.attributes
                0x0000013a       0x1e c:/nds/libnds/lib\libmm7.a(mm_comms7.o)
 .ARM.attributes
                0x00000158       0x20 c:/nds/libnds/lib\libmm7.a(mm_mixer_super.o)
 .ARM.attributes
                0x00000178       0x1e c:/nds/libnds/lib\libmm7.a(mm_reverb.o)
 .ARM.attributes
                0x00000196       0x20 c:/nds/libnds/lib\libmm7.a(mm_stream.o)
 .ARM.attributes
                0x000001b6       0x1e c:/nds/libnds/lib\libmm7.a(mm_effect.o)
 .ARM.attributes
                0x000001d4       0x2a c:/nds/libnds/lib\libnds7.a(audio.o)
 .ARM.attributes
                0x000001fe       0x2a c:/nds/libnds/lib\libnds7.a(clock.o)
 .ARM.attributes
                0x00000228       0x2a c:/nds/libnds/lib\libnds7.a(input.o)
 .ARM.attributes
                0x00000252       0x2a c:/nds/libnds/lib\libnds7.a(microphone.o)
 .ARM.attributes
                0x0000027c       0x2a c:/nds/libnds/lib\libnds7.a(system.o)
 .ARM.attributes
                0x000002a6       0x2a c:/nds/libnds/lib\libnds7.a(touch.o)
 .ARM.attributes
                0x000002d0       0x2a c:/nds/libnds/lib\libnds7.a(userSettings.o)
 .ARM.attributes
                0x000002fa       0x2a c:/nds/libnds/lib\libnds7.a(fifosystem.o)
 .ARM.attributes
                0x00000324       0x2a c:/nds/libnds/lib\libnds7.a(interrupts.o)
 .ARM.attributes
                0x0000034e       0x1e c:/nds/libnds/lib\libnds7.a(biosCalls.o)
 .ARM.attributes
                0x0000036c       0x1e c:/nds/libnds/lib\libnds7.a(interruptDispatcher.o)
 .ARM.attributes
                0x0000038a       0x2a c:/nds/libnds/lib\libnds7.a(spi.o)
 .ARM.attributes
                0x000003b4       0x1e c:/nds/devkitarm/bin/../lib/gcc/arm-eabi/4.3.2\libgcc.a(_divsi3.o)
 .ARM.attributes
                0x000003d2       0x1e c:/nds/devkitarm/bin/../lib/gcc/arm-eabi/4.3.2\libgcc.a(_dvmd_tls.o)
 .ARM.attributes
                0x000003f0       0x1e c:/nds/devkitarm/bin/../lib/gcc/arm-eabi/4.3.2\libgcc.a(_call_via_rX.o)
 .ARM.attributes
                0x0000040e       0x2e c:/nds/devkitarm/bin/../lib/gcc/arm-eabi/4.3.2/../../../../arm-eabi/lib\libg.a(lib_a-init.o)
 .ARM.attributes
                0x0000043c       0x2e c:/nds/devkitarm/bin/../lib/gcc/arm-eabi/4.3.2/../../../../arm-eabi/lib\libg.a(lib_a-memcpy.o)
 .ARM.attributes
                0x0000046a       0x2c c:/nds/devkitarm/bin/../lib/gcc/arm-eabi/4.3.2/crtend.o
 .ARM.attributes
                0x00000496       0x1e c:/nds/devkitarm/bin/../lib/gcc/arm-eabi/4.3.2/crtn.o

.debug_ranges   0x00000000     0x1008
 .debug_ranges  0x00000000       0x20 c:/nds/devkitarm/bin/../lib/gcc/arm-eabi/4.3.2/crti.o
 .debug_ranges  0x00000020      0x760 c:/nds/libnds/lib\libdswifi7.a(wifi_arm7.o)
 .debug_ranges  0x00000780       0x90 c:/nds/libnds/lib\libnds7.a(audio.o)
 .debug_ranges  0x00000810       0x30 c:/nds/libnds/lib\libnds7.a(clock.o)
 .debug_ranges  0x00000840       0x30 c:/nds/libnds/lib\libnds7.a(microphone.o)
 .debug_ranges  0x00000870       0x78 c:/nds/libnds/lib\libnds7.a(system.o)
 .debug_ranges  0x000008e8       0xa0 c:/nds/libnds/lib\libnds7.a(touch.o)
 .debug_ranges  0x00000988      0x660 c:/nds/libnds/lib\libnds7.a(fifosystem.o)
 .debug_ranges  0x00000fe8       0x20 c:/nds/devkitarm/bin/../lib/gcc/arm-eabi/4.3.2/crtn.o
